
kernel.elf:     file format elf32-littleriscv


Disassembly of section .text:

80000000 <_start>:
80000000:	0aa00513          	li	a0,170
80000004:	30053073          	csrc	mstatus,a0
80000008:	30401073          	csrw	mie,zero
8000000c:	34401073          	csrw	mip,zero
80000010:	0000a197          	auipc	gp,0xa
80000014:	dd818193          	addi	gp,gp,-552 # 80009de8 <__global_pointer>
80000018:	00009117          	auipc	sp,0x9
8000001c:	5d010113          	addi	sp,sp,1488 # 800095e8 <_end>
80000020:	02c000ef          	jal	8000004c <_trap_setup>
80000024:	00000093          	li	ra,0
80000028:	0210506f          	j	80005848 <nulluser>

8000002c <syscall>:
8000002c:	00050893          	mv	a7,a0
80000030:	00058513          	mv	a0,a1
80000034:	00060593          	mv	a1,a2
80000038:	00068613          	mv	a2,a3
8000003c:	00070693          	mv	a3,a4
80000040:	00078713          	mv	a4,a5
80000044:	00000073          	ecall
80000048:	00008067          	ret

8000004c <_trap_setup>:
8000004c:	00000297          	auipc	t0,0x0
80000050:	01028293          	addi	t0,t0,16 # 8000005c <_trap>
80000054:	30529073          	csrw	mtvec,t0
80000058:	00008067          	ret

8000005c <_trap>:
8000005c:	f7410113          	addi	sp,sp,-140
80000060:	09f12423          	sw	t6,136(sp)
80000064:	09e12223          	sw	t5,132(sp)
80000068:	09d12023          	sw	t4,128(sp)
8000006c:	07c12e23          	sw	t3,124(sp)
80000070:	07b12c23          	sw	s11,120(sp)
80000074:	07a12a23          	sw	s10,116(sp)
80000078:	07912823          	sw	s9,112(sp)
8000007c:	07812623          	sw	s8,108(sp)
80000080:	07712423          	sw	s7,104(sp)
80000084:	07612223          	sw	s6,100(sp)
80000088:	07512023          	sw	s5,96(sp)
8000008c:	05412e23          	sw	s4,92(sp)
80000090:	05312c23          	sw	s3,88(sp)
80000094:	05212a23          	sw	s2,84(sp)
80000098:	05112823          	sw	a7,80(sp)
8000009c:	05012623          	sw	a6,76(sp)
800000a0:	04f12423          	sw	a5,72(sp)
800000a4:	04e12223          	sw	a4,68(sp)
800000a8:	04d12023          	sw	a3,64(sp)
800000ac:	02c12e23          	sw	a2,60(sp)
800000b0:	02b12c23          	sw	a1,56(sp)
800000b4:	02a12a23          	sw	a0,52(sp)
800000b8:	02912823          	sw	s1,48(sp)
800000bc:	02812623          	sw	s0,44(sp)
800000c0:	02712423          	sw	t2,40(sp)
800000c4:	02612223          	sw	t1,36(sp)
800000c8:	02512023          	sw	t0,32(sp)
800000cc:	00412e23          	sw	tp,28(sp)
800000d0:	00312c23          	sw	gp,24(sp)
800000d4:	00212a23          	sw	sp,20(sp)
800000d8:	00112823          	sw	ra,16(sp)
800000dc:	34202473          	csrr	s0,mcause
800000e0:	00812423          	sw	s0,8(sp)
800000e4:	30002473          	csrr	s0,mstatus
800000e8:	00812223          	sw	s0,4(sp)
800000ec:	34102473          	csrr	s0,mepc
800000f0:	00812023          	sw	s0,0(sp)
800000f4:	00010513          	mv	a0,sp
800000f8:	02d070ef          	jal	80007924 <exceptionHandler>

800000fc <exception_return>:
800000fc:	00050113          	mv	sp,a0
80000100:	00012403          	lw	s0,0(sp)
80000104:	34141073          	csrw	mepc,s0
80000108:	00412403          	lw	s0,4(sp)
8000010c:	30041073          	csrw	mstatus,s0
80000110:	01012083          	lw	ra,16(sp)
80000114:	01812183          	lw	gp,24(sp)
80000118:	01c12203          	lw	tp,28(sp)
8000011c:	02012283          	lw	t0,32(sp)
80000120:	02412303          	lw	t1,36(sp)
80000124:	02812383          	lw	t2,40(sp)
80000128:	02c12403          	lw	s0,44(sp)
8000012c:	03012483          	lw	s1,48(sp)
80000130:	03412503          	lw	a0,52(sp)
80000134:	03812583          	lw	a1,56(sp)
80000138:	03c12603          	lw	a2,60(sp)
8000013c:	04012683          	lw	a3,64(sp)
80000140:	04412703          	lw	a4,68(sp)
80000144:	04812783          	lw	a5,72(sp)
80000148:	04c12803          	lw	a6,76(sp)
8000014c:	05012883          	lw	a7,80(sp)
80000150:	05412903          	lw	s2,84(sp)
80000154:	05812983          	lw	s3,88(sp)
80000158:	05c12a03          	lw	s4,92(sp)
8000015c:	06012a83          	lw	s5,96(sp)
80000160:	06412b03          	lw	s6,100(sp)
80000164:	06812b83          	lw	s7,104(sp)
80000168:	06c12c03          	lw	s8,108(sp)
8000016c:	07012c83          	lw	s9,112(sp)
80000170:	07412d03          	lw	s10,116(sp)
80000174:	07812d83          	lw	s11,120(sp)
80000178:	07c12e03          	lw	t3,124(sp)
8000017c:	08012e83          	lw	t4,128(sp)
80000180:	08412f03          	lw	t5,132(sp)
80000184:	08812f83          	lw	t6,136(sp)
80000188:	08c10113          	addi	sp,sp,140
8000018c:	30200073          	mret

80000190 <soft_trap>:
80000190:	34446073          	csrsi	mip,8
80000194:	00008067          	ret

80000198 <enable>:
80000198:	30046573          	csrrsi	a0,mstatus,8
8000019c:	00008067          	ret

800001a0 <disable>:
800001a0:	30047573          	csrrci	a0,mstatus,8
800001a4:	fff54513          	not	a0,a0
800001a8:	00857513          	andi	a0,a0,8
800001ac:	00008067          	ret

800001b0 <restore>:
800001b0:	00050663          	beqz	a0,800001bc <restore_set_mie>
800001b4:	30047573          	csrrci	a0,mstatus,8
800001b8:	0080006f          	j	800001c0 <restore_return>

800001bc <restore_set_mie>:
800001bc:	30046573          	csrrsi	a0,mstatus,8

800001c0 <restore_return>:
800001c0:	fff54513          	not	a0,a0
800001c4:	00857513          	andi	a0,a0,8
800001c8:	00008067          	ret

800001cc <ctxsw>:
800001cc:	fa410113          	addi	sp,sp,-92
800001d0:	05112c23          	sw	a7,88(sp)
800001d4:	05012a23          	sw	a6,84(sp)
800001d8:	04f12823          	sw	a5,80(sp)
800001dc:	04e12623          	sw	a4,76(sp)
800001e0:	04d12423          	sw	a3,72(sp)
800001e4:	04c12223          	sw	a2,68(sp)
800001e8:	04b12023          	sw	a1,64(sp)
800001ec:	02a12e23          	sw	a0,60(sp)
800001f0:	03b12c23          	sw	s11,56(sp)
800001f4:	03a12a23          	sw	s10,52(sp)
800001f8:	03912823          	sw	s9,48(sp)
800001fc:	03812623          	sw	s8,44(sp)
80000200:	03712423          	sw	s7,40(sp)
80000204:	03612223          	sw	s6,36(sp)
80000208:	03512023          	sw	s5,32(sp)
8000020c:	01412e23          	sw	s4,28(sp)
80000210:	01312c23          	sw	s3,24(sp)
80000214:	01212a23          	sw	s2,20(sp)
80000218:	00912823          	sw	s1,16(sp)
8000021c:	00812623          	sw	s0,12(sp)
80000220:	300023f3          	csrr	t2,mstatus
80000224:	00712423          	sw	t2,8(sp)
80000228:	00112223          	sw	ra,4(sp)
8000022c:	00252023          	sw	sp,0(a0)
80000230:	0005a103          	lw	sp,0(a1)
80000234:	00012283          	lw	t0,0(sp)
80000238:	00412083          	lw	ra,4(sp)
8000023c:	00812383          	lw	t2,8(sp)
80000240:	00c12403          	lw	s0,12(sp)
80000244:	01012483          	lw	s1,16(sp)
80000248:	01412903          	lw	s2,20(sp)
8000024c:	01812983          	lw	s3,24(sp)
80000250:	01c12a03          	lw	s4,28(sp)
80000254:	02012a83          	lw	s5,32(sp)
80000258:	02412b03          	lw	s6,36(sp)
8000025c:	02812b83          	lw	s7,40(sp)
80000260:	02c12c03          	lw	s8,44(sp)
80000264:	03012c83          	lw	s9,48(sp)
80000268:	03412d03          	lw	s10,52(sp)
8000026c:	03812d83          	lw	s11,56(sp)
80000270:	03c12503          	lw	a0,60(sp)
80000274:	04012583          	lw	a1,64(sp)
80000278:	04412603          	lw	a2,68(sp)
8000027c:	04812683          	lw	a3,72(sp)
80000280:	04c12703          	lw	a4,76(sp)
80000284:	05012783          	lw	a5,80(sp)
80000288:	05412803          	lw	a6,84(sp)
8000028c:	05812883          	lw	a7,88(sp)
80000290:	05c10113          	addi	sp,sp,92
80000294:	0083fe13          	andi	t3,t2,8
80000298:	000e0a63          	beqz	t3,800002ac <end_ctxsw>
8000029c:	ff73f393          	andi	t2,t2,-9
800002a0:	30039073          	csrw	mstatus,t2
800002a4:	34129073          	csrw	mepc,t0
800002a8:	30200073          	mret

800002ac <end_ctxsw>:
800002ac:	00028067          	jr	t0

800002b0 <_doprnt>:
800002b0:	f9010113          	addi	sp,sp,-112
800002b4:	06112623          	sw	ra,108(sp)
800002b8:	06812423          	sw	s0,104(sp)
800002bc:	07010413          	addi	s0,sp,112
800002c0:	f8a42e23          	sw	a0,-100(s0)
800002c4:	f8b42c23          	sw	a1,-104(s0)
800002c8:	f8c42a23          	sw	a2,-108(s0)
800002cc:	0180006f          	j	800002e4 <_doprnt+0x34>
800002d0:	fc842783          	lw	a5,-56(s0)
800002d4:	66078a63          	beqz	a5,80000948 <_doprnt+0x698>
800002d8:	f9442783          	lw	a5,-108(s0)
800002dc:	fc842503          	lw	a0,-56(s0)
800002e0:	000780e7          	jalr	a5
800002e4:	f9c42783          	lw	a5,-100(s0)
800002e8:	00178713          	addi	a4,a5,1
800002ec:	f8e42e23          	sw	a4,-100(s0)
800002f0:	0007c783          	lbu	a5,0(a5)
800002f4:	fcf42423          	sw	a5,-56(s0)
800002f8:	fc842703          	lw	a4,-56(s0)
800002fc:	02500793          	li	a5,37
80000300:	fcf718e3          	bne	a4,a5,800002d0 <_doprnt+0x20>
80000304:	f9c42783          	lw	a5,-100(s0)
80000308:	0007c703          	lbu	a4,0(a5)
8000030c:	02500793          	li	a5,37
80000310:	02f71463          	bne	a4,a5,80000338 <_doprnt+0x88>
80000314:	f9c42783          	lw	a5,-100(s0)
80000318:	00178713          	addi	a4,a5,1
8000031c:	f8e42e23          	sw	a4,-100(s0)
80000320:	0007c783          	lbu	a5,0(a5)
80000324:	00078713          	mv	a4,a5
80000328:	f9442783          	lw	a5,-108(s0)
8000032c:	00070513          	mv	a0,a4
80000330:	000780e7          	jalr	a5
80000334:	6100006f          	j	80000944 <_doprnt+0x694>
80000338:	f9c42783          	lw	a5,-100(s0)
8000033c:	0007c783          	lbu	a5,0(a5)
80000340:	fd378793          	addi	a5,a5,-45
80000344:	0017b793          	seqz	a5,a5
80000348:	0ff7f793          	zext.b	a5,a5
8000034c:	fcf42223          	sw	a5,-60(s0)
80000350:	fc442783          	lw	a5,-60(s0)
80000354:	00078863          	beqz	a5,80000364 <_doprnt+0xb4>
80000358:	f9c42783          	lw	a5,-100(s0)
8000035c:	00178793          	addi	a5,a5,1
80000360:	f8f42e23          	sw	a5,-100(s0)
80000364:	f9c42783          	lw	a5,-100(s0)
80000368:	0007c703          	lbu	a4,0(a5)
8000036c:	03000793          	li	a5,48
80000370:	00f71c63          	bne	a4,a5,80000388 <_doprnt+0xd8>
80000374:	f9c42783          	lw	a5,-100(s0)
80000378:	00178713          	addi	a4,a5,1
8000037c:	f8e42e23          	sw	a4,-100(s0)
80000380:	0007c783          	lbu	a5,0(a5)
80000384:	0080006f          	j	8000038c <_doprnt+0xdc>
80000388:	02000793          	li	a5,32
8000038c:	fef401a3          	sb	a5,-29(s0)
80000390:	fc042c23          	sw	zero,-40(s0)
80000394:	f9c42783          	lw	a5,-100(s0)
80000398:	0007c703          	lbu	a4,0(a5)
8000039c:	02a00793          	li	a5,42
800003a0:	04f71e63          	bne	a4,a5,800003fc <_doprnt+0x14c>
800003a4:	f9842783          	lw	a5,-104(s0)
800003a8:	00478713          	addi	a4,a5,4
800003ac:	f8e42c23          	sw	a4,-104(s0)
800003b0:	0007a783          	lw	a5,0(a5)
800003b4:	fcf42c23          	sw	a5,-40(s0)
800003b8:	f9c42783          	lw	a5,-100(s0)
800003bc:	00178793          	addi	a5,a5,1
800003c0:	f8f42e23          	sw	a5,-100(s0)
800003c4:	0580006f          	j	8000041c <_doprnt+0x16c>
800003c8:	fd842703          	lw	a4,-40(s0)
800003cc:	00070793          	mv	a5,a4
800003d0:	00279793          	slli	a5,a5,0x2
800003d4:	00e787b3          	add	a5,a5,a4
800003d8:	00179793          	slli	a5,a5,0x1
800003dc:	00078693          	mv	a3,a5
800003e0:	f9c42783          	lw	a5,-100(s0)
800003e4:	00178713          	addi	a4,a5,1
800003e8:	f8e42e23          	sw	a4,-100(s0)
800003ec:	0007c783          	lbu	a5,0(a5)
800003f0:	00f687b3          	add	a5,a3,a5
800003f4:	fd078793          	addi	a5,a5,-48
800003f8:	fcf42c23          	sw	a5,-40(s0)
800003fc:	f9c42783          	lw	a5,-100(s0)
80000400:	0007c703          	lbu	a4,0(a5)
80000404:	02f00793          	li	a5,47
80000408:	00e7fa63          	bgeu	a5,a4,8000041c <_doprnt+0x16c>
8000040c:	f9c42783          	lw	a5,-100(s0)
80000410:	0007c703          	lbu	a4,0(a5)
80000414:	03900793          	li	a5,57
80000418:	fae7f8e3          	bgeu	a5,a4,800003c8 <_doprnt+0x118>
8000041c:	fc042e23          	sw	zero,-36(s0)
80000420:	f9c42783          	lw	a5,-100(s0)
80000424:	0007c703          	lbu	a4,0(a5)
80000428:	02e00793          	li	a5,46
8000042c:	08f71c63          	bne	a4,a5,800004c4 <_doprnt+0x214>
80000430:	f9c42783          	lw	a5,-100(s0)
80000434:	00178793          	addi	a5,a5,1
80000438:	f8f42e23          	sw	a5,-100(s0)
8000043c:	f9c42783          	lw	a5,-100(s0)
80000440:	0007c703          	lbu	a4,0(a5)
80000444:	02a00793          	li	a5,42
80000448:	04f71e63          	bne	a4,a5,800004a4 <_doprnt+0x1f4>
8000044c:	f9842783          	lw	a5,-104(s0)
80000450:	00478713          	addi	a4,a5,4
80000454:	f8e42c23          	sw	a4,-104(s0)
80000458:	0007a783          	lw	a5,0(a5)
8000045c:	fcf42e23          	sw	a5,-36(s0)
80000460:	f9c42783          	lw	a5,-100(s0)
80000464:	00178793          	addi	a5,a5,1
80000468:	f8f42e23          	sw	a5,-100(s0)
8000046c:	0580006f          	j	800004c4 <_doprnt+0x214>
80000470:	fdc42703          	lw	a4,-36(s0)
80000474:	00070793          	mv	a5,a4
80000478:	00279793          	slli	a5,a5,0x2
8000047c:	00e787b3          	add	a5,a5,a4
80000480:	00179793          	slli	a5,a5,0x1
80000484:	00078693          	mv	a3,a5
80000488:	f9c42783          	lw	a5,-100(s0)
8000048c:	00178713          	addi	a4,a5,1
80000490:	f8e42e23          	sw	a4,-100(s0)
80000494:	0007c783          	lbu	a5,0(a5)
80000498:	00f687b3          	add	a5,a3,a5
8000049c:	fd078793          	addi	a5,a5,-48
800004a0:	fcf42e23          	sw	a5,-36(s0)
800004a4:	f9c42783          	lw	a5,-100(s0)
800004a8:	0007c703          	lbu	a4,0(a5)
800004ac:	02f00793          	li	a5,47
800004b0:	00e7fa63          	bgeu	a5,a4,800004c4 <_doprnt+0x214>
800004b4:	f9c42783          	lw	a5,-100(s0)
800004b8:	0007c703          	lbu	a4,0(a5)
800004bc:	03900793          	li	a5,57
800004c0:	fae7f8e3          	bgeu	a5,a4,80000470 <_doprnt+0x1c0>
800004c4:	fac40793          	addi	a5,s0,-84
800004c8:	fef42423          	sw	a5,-24(s0)
800004cc:	f9c42783          	lw	a5,-100(s0)
800004d0:	00178713          	addi	a4,a5,1
800004d4:	f8e42e23          	sw	a4,-100(s0)
800004d8:	0007c783          	lbu	a5,0(a5)
800004dc:	fcf42023          	sw	a5,-64(s0)
800004e0:	fc042783          	lw	a5,-64(s0)
800004e4:	00079a63          	bnez	a5,800004f8 <_doprnt+0x248>
800004e8:	f9442783          	lw	a5,-108(s0)
800004ec:	02500513          	li	a0,37
800004f0:	000780e7          	jalr	a5
800004f4:	4580006f          	j	8000094c <_doprnt+0x69c>
800004f8:	fc0409a3          	sb	zero,-45(s0)
800004fc:	fc042783          	lw	a5,-64(s0)
80000500:	fb878793          	addi	a5,a5,-72
80000504:	03000713          	li	a4,48
80000508:	26f76863          	bltu	a4,a5,80000778 <_doprnt+0x4c8>
8000050c:	00279713          	slli	a4,a5,0x2
80000510:	00007797          	auipc	a5,0x7
80000514:	65c78793          	addi	a5,a5,1628 # 80007b6c <_ctype_+0x8c>
80000518:	00f707b3          	add	a5,a4,a5
8000051c:	0007a703          	lw	a4,0(a5)
80000520:	00007797          	auipc	a5,0x7
80000524:	64c78793          	addi	a5,a5,1612 # 80007b6c <_ctype_+0x8c>
80000528:	00f707b3          	add	a5,a4,a5
8000052c:	00078067          	jr	a5
80000530:	f9842783          	lw	a5,-104(s0)
80000534:	00478713          	addi	a4,a5,4
80000538:	f8e42c23          	sw	a4,-104(s0)
8000053c:	0007a783          	lw	a5,0(a5)
80000540:	0ff7f793          	zext.b	a5,a5
80000544:	faf40623          	sb	a5,-84(s0)
80000548:	fa0406a3          	sb	zero,-83(s0)
8000054c:	fc042e23          	sw	zero,-36(s0)
80000550:	02000793          	li	a5,32
80000554:	fef401a3          	sb	a5,-29(s0)
80000558:	2340006f          	j	8000078c <_doprnt+0x4dc>
8000055c:	f9842783          	lw	a5,-104(s0)
80000560:	00478713          	addi	a4,a5,4
80000564:	f8e42c23          	sw	a4,-104(s0)
80000568:	0007a783          	lw	a5,0(a5)
8000056c:	fef42423          	sw	a5,-24(s0)
80000570:	fe842783          	lw	a5,-24(s0)
80000574:	00079863          	bnez	a5,80000584 <_doprnt+0x2d4>
80000578:	00007797          	auipc	a5,0x7
8000057c:	5ec78793          	addi	a5,a5,1516 # 80007b64 <_ctype_+0x84>
80000580:	fef42423          	sw	a5,-24(s0)
80000584:	02000793          	li	a5,32
80000588:	fef401a3          	sb	a5,-29(s0)
8000058c:	2000006f          	j	8000078c <_doprnt+0x4dc>
80000590:	f9842783          	lw	a5,-104(s0)
80000594:	00478713          	addi	a4,a5,4
80000598:	f8e42c23          	sw	a4,-104(s0)
8000059c:	0007a783          	lw	a5,0(a5)
800005a0:	fcf42623          	sw	a5,-52(s0)
800005a4:	fcc42783          	lw	a5,-52(s0)
800005a8:	0007d663          	bgez	a5,800005b4 <_doprnt+0x304>
800005ac:	02d00793          	li	a5,45
800005b0:	fcf409a3          	sb	a5,-45(s0)
800005b4:	fe842583          	lw	a1,-24(s0)
800005b8:	fcc42503          	lw	a0,-52(s0)
800005bc:	3a0000ef          	jal	8000095c <_prtl10>
800005c0:	1cc0006f          	j	8000078c <_doprnt+0x4dc>
800005c4:	fc040923          	sb	zero,-46(s0)
800005c8:	f9842783          	lw	a5,-104(s0)
800005cc:	00478713          	addi	a4,a5,4
800005d0:	f8e42c23          	sw	a4,-104(s0)
800005d4:	0007a783          	lw	a5,0(a5)
800005d8:	fcf42623          	sw	a5,-52(s0)
800005dc:	0240006f          	j	80000600 <_doprnt+0x350>
800005e0:	fcc42703          	lw	a4,-52(s0)
800005e4:	c46537b7          	lui	a5,0xc4653
800005e8:	60078793          	addi	a5,a5,1536 # c4653600 <__global_pointer+0x44649818>
800005ec:	00f707b3          	add	a5,a4,a5
800005f0:	fcf42623          	sw	a5,-52(s0)
800005f4:	fd244783          	lbu	a5,-46(s0)
800005f8:	00178793          	addi	a5,a5,1
800005fc:	fcf40923          	sb	a5,-46(s0)
80000600:	fcc42783          	lw	a5,-52(s0)
80000604:	fc07cee3          	bltz	a5,800005e0 <_doprnt+0x330>
80000608:	fe842583          	lw	a1,-24(s0)
8000060c:	fcc42503          	lw	a0,-52(s0)
80000610:	34c000ef          	jal	8000095c <_prtl10>
80000614:	fe842783          	lw	a5,-24(s0)
80000618:	0007c783          	lbu	a5,0(a5)
8000061c:	fd244703          	lbu	a4,-46(s0)
80000620:	00e787b3          	add	a5,a5,a4
80000624:	0ff7f713          	zext.b	a4,a5
80000628:	fe842783          	lw	a5,-24(s0)
8000062c:	00e78023          	sb	a4,0(a5)
80000630:	fc042e23          	sw	zero,-36(s0)
80000634:	1580006f          	j	8000078c <_doprnt+0x4dc>
80000638:	f9842783          	lw	a5,-104(s0)
8000063c:	00478713          	addi	a4,a5,4
80000640:	f8e42c23          	sw	a4,-104(s0)
80000644:	0007a783          	lw	a5,0(a5)
80000648:	fcf42623          	sw	a5,-52(s0)
8000064c:	fe842583          	lw	a1,-24(s0)
80000650:	fcc42503          	lw	a0,-52(s0)
80000654:	46c000ef          	jal	80000ac0 <_prtl8>
80000658:	fc042e23          	sw	zero,-36(s0)
8000065c:	1300006f          	j	8000078c <_doprnt+0x4dc>
80000660:	f9842783          	lw	a5,-104(s0)
80000664:	00478713          	addi	a4,a5,4
80000668:	f8e42c23          	sw	a4,-104(s0)
8000066c:	0007a783          	lw	a5,0(a5)
80000670:	fcf42623          	sw	a5,-52(s0)
80000674:	fe842583          	lw	a1,-24(s0)
80000678:	fcc42503          	lw	a0,-52(s0)
8000067c:	64c000ef          	jal	80000cc8 <_prtX16>
80000680:	fc042e23          	sw	zero,-36(s0)
80000684:	1080006f          	j	8000078c <_doprnt+0x4dc>
80000688:	f9842783          	lw	a5,-104(s0)
8000068c:	00478713          	addi	a4,a5,4
80000690:	f8e42c23          	sw	a4,-104(s0)
80000694:	0007a783          	lw	a5,0(a5)
80000698:	fcf42623          	sw	a5,-52(s0)
8000069c:	fe842583          	lw	a1,-24(s0)
800006a0:	fcc42503          	lw	a0,-52(s0)
800006a4:	528000ef          	jal	80000bcc <_prtl16>
800006a8:	fc042e23          	sw	zero,-36(s0)
800006ac:	0e00006f          	j	8000078c <_doprnt+0x4dc>
800006b0:	f9842783          	lw	a5,-104(s0)
800006b4:	00478713          	addi	a4,a5,4
800006b8:	f8e42c23          	sw	a4,-104(s0)
800006bc:	0007a783          	lw	a5,0(a5)
800006c0:	fcf42623          	sw	a5,-52(s0)
800006c4:	fe842583          	lw	a1,-24(s0)
800006c8:	fcc42503          	lw	a0,-52(s0)
800006cc:	5fc000ef          	jal	80000cc8 <_prtX16>
800006d0:	f9842783          	lw	a5,-104(s0)
800006d4:	00478713          	addi	a4,a5,4
800006d8:	f8e42c23          	sw	a4,-104(s0)
800006dc:	0007a783          	lw	a5,0(a5)
800006e0:	fcf42623          	sw	a5,-52(s0)
800006e4:	fe842783          	lw	a5,-24(s0)
800006e8:	00878793          	addi	a5,a5,8
800006ec:	00078593          	mv	a1,a5
800006f0:	fcc42503          	lw	a0,-52(s0)
800006f4:	5d4000ef          	jal	80000cc8 <_prtX16>
800006f8:	fc042e23          	sw	zero,-36(s0)
800006fc:	0900006f          	j	8000078c <_doprnt+0x4dc>
80000700:	f9842783          	lw	a5,-104(s0)
80000704:	00478713          	addi	a4,a5,4
80000708:	f8e42c23          	sw	a4,-104(s0)
8000070c:	0007a783          	lw	a5,0(a5)
80000710:	fcf42623          	sw	a5,-52(s0)
80000714:	fe842583          	lw	a1,-24(s0)
80000718:	fcc42503          	lw	a0,-52(s0)
8000071c:	4b0000ef          	jal	80000bcc <_prtl16>
80000720:	f9842783          	lw	a5,-104(s0)
80000724:	00478713          	addi	a4,a5,4
80000728:	f8e42c23          	sw	a4,-104(s0)
8000072c:	0007a783          	lw	a5,0(a5)
80000730:	fcf42623          	sw	a5,-52(s0)
80000734:	fe842783          	lw	a5,-24(s0)
80000738:	00878793          	addi	a5,a5,8
8000073c:	00078593          	mv	a1,a5
80000740:	fcc42503          	lw	a0,-52(s0)
80000744:	488000ef          	jal	80000bcc <_prtl16>
80000748:	fc042e23          	sw	zero,-36(s0)
8000074c:	0400006f          	j	8000078c <_doprnt+0x4dc>
80000750:	f9842783          	lw	a5,-104(s0)
80000754:	00478713          	addi	a4,a5,4
80000758:	f8e42c23          	sw	a4,-104(s0)
8000075c:	0007a783          	lw	a5,0(a5)
80000760:	fcf42623          	sw	a5,-52(s0)
80000764:	fe842583          	lw	a1,-24(s0)
80000768:	fcc42503          	lw	a0,-52(s0)
8000076c:	658000ef          	jal	80000dc4 <_prtl2>
80000770:	fc042e23          	sw	zero,-36(s0)
80000774:	0180006f          	j	8000078c <_doprnt+0x4dc>
80000778:	f9442783          	lw	a5,-108(s0)
8000077c:	fc042503          	lw	a0,-64(s0)
80000780:	000780e7          	jalr	a5
80000784:	0080006f          	j	8000078c <_doprnt+0x4dc>
80000788:	00000013          	nop
8000078c:	fe042223          	sw	zero,-28(s0)
80000790:	0100006f          	j	800007a0 <_doprnt+0x4f0>
80000794:	fe442783          	lw	a5,-28(s0)
80000798:	00178793          	addi	a5,a5,1
8000079c:	fef42223          	sw	a5,-28(s0)
800007a0:	fe442783          	lw	a5,-28(s0)
800007a4:	fe842703          	lw	a4,-24(s0)
800007a8:	00f707b3          	add	a5,a4,a5
800007ac:	0007c783          	lbu	a5,0(a5)
800007b0:	fe0792e3          	bnez	a5,80000794 <_doprnt+0x4e4>
800007b4:	fd842703          	lw	a4,-40(s0)
800007b8:	05000793          	li	a5,80
800007bc:	00e7c663          	blt	a5,a4,800007c8 <_doprnt+0x518>
800007c0:	fd842783          	lw	a5,-40(s0)
800007c4:	0007d463          	bgez	a5,800007cc <_doprnt+0x51c>
800007c8:	fc042c23          	sw	zero,-40(s0)
800007cc:	fdc42703          	lw	a4,-36(s0)
800007d0:	05000793          	li	a5,80
800007d4:	00e7c663          	blt	a5,a4,800007e0 <_doprnt+0x530>
800007d8:	fdc42783          	lw	a5,-36(s0)
800007dc:	0007d463          	bgez	a5,800007e4 <_doprnt+0x534>
800007e0:	fc042e23          	sw	zero,-36(s0)
800007e4:	fc042a23          	sw	zero,-44(s0)
800007e8:	fdc42783          	lw	a5,-36(s0)
800007ec:	00079663          	bnez	a5,800007f8 <_doprnt+0x548>
800007f0:	fd842783          	lw	a5,-40(s0)
800007f4:	04078863          	beqz	a5,80000844 <_doprnt+0x594>
800007f8:	fdc42783          	lw	a5,-36(s0)
800007fc:	00078c63          	beqz	a5,80000814 <_doprnt+0x564>
80000800:	fe442703          	lw	a4,-28(s0)
80000804:	fdc42783          	lw	a5,-36(s0)
80000808:	00e7d663          	bge	a5,a4,80000814 <_doprnt+0x564>
8000080c:	fdc42783          	lw	a5,-36(s0)
80000810:	fef42223          	sw	a5,-28(s0)
80000814:	fd842783          	lw	a5,-40(s0)
80000818:	00078a63          	beqz	a5,8000082c <_doprnt+0x57c>
8000081c:	fd842703          	lw	a4,-40(s0)
80000820:	fe442783          	lw	a5,-28(s0)
80000824:	40f707b3          	sub	a5,a4,a5
80000828:	fcf42a23          	sw	a5,-44(s0)
8000082c:	fd344703          	lbu	a4,-45(s0)
80000830:	02d00793          	li	a5,45
80000834:	00f71863          	bne	a4,a5,80000844 <_doprnt+0x594>
80000838:	fd442783          	lw	a5,-44(s0)
8000083c:	fff78793          	addi	a5,a5,-1
80000840:	fcf42a23          	sw	a5,-44(s0)
80000844:	fd344703          	lbu	a4,-45(s0)
80000848:	02d00793          	li	a5,45
8000084c:	02f71063          	bne	a4,a5,8000086c <_doprnt+0x5bc>
80000850:	fe344703          	lbu	a4,-29(s0)
80000854:	03000793          	li	a5,48
80000858:	00f71a63          	bne	a4,a5,8000086c <_doprnt+0x5bc>
8000085c:	fd344703          	lbu	a4,-45(s0)
80000860:	f9442783          	lw	a5,-108(s0)
80000864:	00070513          	mv	a0,a4
80000868:	000780e7          	jalr	a5
8000086c:	fc442783          	lw	a5,-60(s0)
80000870:	02079a63          	bnez	a5,800008a4 <_doprnt+0x5f4>
80000874:	fe042623          	sw	zero,-20(s0)
80000878:	0200006f          	j	80000898 <_doprnt+0x5e8>
8000087c:	fe344703          	lbu	a4,-29(s0)
80000880:	f9442783          	lw	a5,-108(s0)
80000884:	00070513          	mv	a0,a4
80000888:	000780e7          	jalr	a5
8000088c:	fec42783          	lw	a5,-20(s0)
80000890:	00178793          	addi	a5,a5,1
80000894:	fef42623          	sw	a5,-20(s0)
80000898:	fec42703          	lw	a4,-20(s0)
8000089c:	fd442783          	lw	a5,-44(s0)
800008a0:	fcf74ee3          	blt	a4,a5,8000087c <_doprnt+0x5cc>
800008a4:	fd344703          	lbu	a4,-45(s0)
800008a8:	02d00793          	li	a5,45
800008ac:	02f71063          	bne	a4,a5,800008cc <_doprnt+0x61c>
800008b0:	fe344703          	lbu	a4,-29(s0)
800008b4:	02000793          	li	a5,32
800008b8:	00f71a63          	bne	a4,a5,800008cc <_doprnt+0x61c>
800008bc:	fd344703          	lbu	a4,-45(s0)
800008c0:	f9442783          	lw	a5,-108(s0)
800008c4:	00070513          	mv	a0,a4
800008c8:	000780e7          	jalr	a5
800008cc:	fe042623          	sw	zero,-20(s0)
800008d0:	0300006f          	j	80000900 <_doprnt+0x650>
800008d4:	fec42783          	lw	a5,-20(s0)
800008d8:	fe842703          	lw	a4,-24(s0)
800008dc:	00f707b3          	add	a5,a4,a5
800008e0:	0007c783          	lbu	a5,0(a5)
800008e4:	00078713          	mv	a4,a5
800008e8:	f9442783          	lw	a5,-108(s0)
800008ec:	00070513          	mv	a0,a4
800008f0:	000780e7          	jalr	a5
800008f4:	fec42783          	lw	a5,-20(s0)
800008f8:	00178793          	addi	a5,a5,1
800008fc:	fef42623          	sw	a5,-20(s0)
80000900:	fec42703          	lw	a4,-20(s0)
80000904:	fe442783          	lw	a5,-28(s0)
80000908:	fcf746e3          	blt	a4,a5,800008d4 <_doprnt+0x624>
8000090c:	fc442783          	lw	a5,-60(s0)
80000910:	9c078ae3          	beqz	a5,800002e4 <_doprnt+0x34>
80000914:	fe042623          	sw	zero,-20(s0)
80000918:	0200006f          	j	80000938 <_doprnt+0x688>
8000091c:	fe344703          	lbu	a4,-29(s0)
80000920:	f9442783          	lw	a5,-108(s0)
80000924:	00070513          	mv	a0,a4
80000928:	000780e7          	jalr	a5
8000092c:	fec42783          	lw	a5,-20(s0)
80000930:	00178793          	addi	a5,a5,1
80000934:	fef42623          	sw	a5,-20(s0)
80000938:	fec42703          	lw	a4,-20(s0)
8000093c:	fd442783          	lw	a5,-44(s0)
80000940:	fcf74ee3          	blt	a4,a5,8000091c <_doprnt+0x66c>
80000944:	9a1ff06f          	j	800002e4 <_doprnt+0x34>
80000948:	00000013          	nop
8000094c:	06c12083          	lw	ra,108(sp)
80000950:	06812403          	lw	s0,104(sp)
80000954:	07010113          	addi	sp,sp,112
80000958:	00008067          	ret

8000095c <_prtl10>:
8000095c:	fd010113          	addi	sp,sp,-48
80000960:	02812623          	sw	s0,44(sp)
80000964:	03010413          	addi	s0,sp,48
80000968:	fca42e23          	sw	a0,-36(s0)
8000096c:	fcb42c23          	sw	a1,-40(s0)
80000970:	fe040023          	sb	zero,-32(s0)
80000974:	fdc42783          	lw	a5,-36(s0)
80000978:	0207d263          	bgez	a5,8000099c <_prtl10+0x40>
8000097c:	fdc42703          	lw	a4,-36(s0)
80000980:	00a00793          	li	a5,10
80000984:	02f767b3          	rem	a5,a4,a5
80000988:	0ff7f793          	zext.b	a5,a5
8000098c:	03000713          	li	a4,48
80000990:	40f707b3          	sub	a5,a4,a5
80000994:	0ff7f793          	zext.b	a5,a5
80000998:	01c0006f          	j	800009b4 <_prtl10+0x58>
8000099c:	fdc42703          	lw	a4,-36(s0)
800009a0:	00a00793          	li	a5,10
800009a4:	02f767b3          	rem	a5,a4,a5
800009a8:	0ff7f793          	zext.b	a5,a5
800009ac:	03078793          	addi	a5,a5,48
800009b0:	0ff7f793          	zext.b	a5,a5
800009b4:	fef400a3          	sb	a5,-31(s0)
800009b8:	fdc42783          	lw	a5,-36(s0)
800009bc:	0007d663          	bgez	a5,800009c8 <_prtl10+0x6c>
800009c0:	ff600793          	li	a5,-10
800009c4:	0080006f          	j	800009cc <_prtl10+0x70>
800009c8:	00a00793          	li	a5,10
800009cc:	fdc42703          	lw	a4,-36(s0)
800009d0:	02f747b3          	div	a5,a4,a5
800009d4:	fcf42e23          	sw	a5,-36(s0)
800009d8:	00200793          	li	a5,2
800009dc:	fef42623          	sw	a5,-20(s0)
800009e0:	0480006f          	j	80000a28 <_prtl10+0xcc>
800009e4:	fdc42703          	lw	a4,-36(s0)
800009e8:	00a00793          	li	a5,10
800009ec:	02f767b3          	rem	a5,a4,a5
800009f0:	0ff7f793          	zext.b	a5,a5
800009f4:	03078793          	addi	a5,a5,48
800009f8:	0ff7f713          	zext.b	a4,a5
800009fc:	fec42783          	lw	a5,-20(s0)
80000a00:	ff078793          	addi	a5,a5,-16
80000a04:	008787b3          	add	a5,a5,s0
80000a08:	fee78823          	sb	a4,-16(a5)
80000a0c:	fdc42703          	lw	a4,-36(s0)
80000a10:	00a00793          	li	a5,10
80000a14:	02f747b3          	div	a5,a4,a5
80000a18:	fcf42e23          	sw	a5,-36(s0)
80000a1c:	fec42783          	lw	a5,-20(s0)
80000a20:	00178793          	addi	a5,a5,1
80000a24:	fef42623          	sw	a5,-20(s0)
80000a28:	fec42703          	lw	a4,-20(s0)
80000a2c:	00a00793          	li	a5,10
80000a30:	fae7dae3          	bge	a5,a4,800009e4 <_prtl10+0x88>
80000a34:	00a00793          	li	a5,10
80000a38:	fef42623          	sw	a5,-20(s0)
80000a3c:	0100006f          	j	80000a4c <_prtl10+0xf0>
80000a40:	fec42783          	lw	a5,-20(s0)
80000a44:	fff78793          	addi	a5,a5,-1
80000a48:	fef42623          	sw	a5,-20(s0)
80000a4c:	fec42783          	lw	a5,-20(s0)
80000a50:	ff078793          	addi	a5,a5,-16
80000a54:	008787b3          	add	a5,a5,s0
80000a58:	ff07c703          	lbu	a4,-16(a5)
80000a5c:	03000793          	li	a5,48
80000a60:	fef700e3          	beq	a4,a5,80000a40 <_prtl10+0xe4>
80000a64:	fec42783          	lw	a5,-20(s0)
80000a68:	02079e63          	bnez	a5,80000aa4 <_prtl10+0x148>
80000a6c:	fec42783          	lw	a5,-20(s0)
80000a70:	00178793          	addi	a5,a5,1
80000a74:	fef42623          	sw	a5,-20(s0)
80000a78:	02c0006f          	j	80000aa4 <_prtl10+0x148>
80000a7c:	fec42703          	lw	a4,-20(s0)
80000a80:	fff70793          	addi	a5,a4,-1
80000a84:	fef42623          	sw	a5,-20(s0)
80000a88:	fd842783          	lw	a5,-40(s0)
80000a8c:	00178693          	addi	a3,a5,1
80000a90:	fcd42c23          	sw	a3,-40(s0)
80000a94:	ff070713          	addi	a4,a4,-16
80000a98:	00870733          	add	a4,a4,s0
80000a9c:	ff074703          	lbu	a4,-16(a4)
80000aa0:	00e78023          	sb	a4,0(a5)
80000aa4:	fec42783          	lw	a5,-20(s0)
80000aa8:	fc07dae3          	bgez	a5,80000a7c <_prtl10+0x120>
80000aac:	00000013          	nop
80000ab0:	00000013          	nop
80000ab4:	02c12403          	lw	s0,44(sp)
80000ab8:	03010113          	addi	sp,sp,48
80000abc:	00008067          	ret

80000ac0 <_prtl8>:
80000ac0:	fd010113          	addi	sp,sp,-48
80000ac4:	02812623          	sw	s0,44(sp)
80000ac8:	03010413          	addi	s0,sp,48
80000acc:	fca42e23          	sw	a0,-36(s0)
80000ad0:	fcb42c23          	sw	a1,-40(s0)
80000ad4:	fe040023          	sb	zero,-32(s0)
80000ad8:	00100793          	li	a5,1
80000adc:	fef42623          	sw	a5,-20(s0)
80000ae0:	0440006f          	j	80000b24 <_prtl8+0x64>
80000ae4:	fdc42783          	lw	a5,-36(s0)
80000ae8:	0ff7f793          	zext.b	a5,a5
80000aec:	0077f793          	andi	a5,a5,7
80000af0:	0ff7f793          	zext.b	a5,a5
80000af4:	03078793          	addi	a5,a5,48
80000af8:	0ff7f713          	zext.b	a4,a5
80000afc:	fec42783          	lw	a5,-20(s0)
80000b00:	ff078793          	addi	a5,a5,-16
80000b04:	008787b3          	add	a5,a5,s0
80000b08:	fee78823          	sb	a4,-16(a5)
80000b0c:	fdc42783          	lw	a5,-36(s0)
80000b10:	4037d793          	srai	a5,a5,0x3
80000b14:	fcf42e23          	sw	a5,-36(s0)
80000b18:	fec42783          	lw	a5,-20(s0)
80000b1c:	00178793          	addi	a5,a5,1
80000b20:	fef42623          	sw	a5,-20(s0)
80000b24:	fec42703          	lw	a4,-20(s0)
80000b28:	00b00793          	li	a5,11
80000b2c:	fae7dce3          	bge	a5,a4,80000ae4 <_prtl8+0x24>
80000b30:	feb44783          	lbu	a5,-21(s0)
80000b34:	0337f793          	andi	a5,a5,51
80000b38:	0ff7f793          	zext.b	a5,a5
80000b3c:	fef405a3          	sb	a5,-21(s0)
80000b40:	00b00793          	li	a5,11
80000b44:	fef42623          	sw	a5,-20(s0)
80000b48:	0100006f          	j	80000b58 <_prtl8+0x98>
80000b4c:	fec42783          	lw	a5,-20(s0)
80000b50:	fff78793          	addi	a5,a5,-1
80000b54:	fef42623          	sw	a5,-20(s0)
80000b58:	fec42783          	lw	a5,-20(s0)
80000b5c:	ff078793          	addi	a5,a5,-16
80000b60:	008787b3          	add	a5,a5,s0
80000b64:	ff07c703          	lbu	a4,-16(a5)
80000b68:	03000793          	li	a5,48
80000b6c:	fef700e3          	beq	a4,a5,80000b4c <_prtl8+0x8c>
80000b70:	fec42783          	lw	a5,-20(s0)
80000b74:	02079e63          	bnez	a5,80000bb0 <_prtl8+0xf0>
80000b78:	fec42783          	lw	a5,-20(s0)
80000b7c:	00178793          	addi	a5,a5,1
80000b80:	fef42623          	sw	a5,-20(s0)
80000b84:	02c0006f          	j	80000bb0 <_prtl8+0xf0>
80000b88:	fec42703          	lw	a4,-20(s0)
80000b8c:	fff70793          	addi	a5,a4,-1
80000b90:	fef42623          	sw	a5,-20(s0)
80000b94:	fd842783          	lw	a5,-40(s0)
80000b98:	00178693          	addi	a3,a5,1
80000b9c:	fcd42c23          	sw	a3,-40(s0)
80000ba0:	ff070713          	addi	a4,a4,-16
80000ba4:	00870733          	add	a4,a4,s0
80000ba8:	ff074703          	lbu	a4,-16(a4)
80000bac:	00e78023          	sb	a4,0(a5)
80000bb0:	fec42783          	lw	a5,-20(s0)
80000bb4:	fc07dae3          	bgez	a5,80000b88 <_prtl8+0xc8>
80000bb8:	00000013          	nop
80000bbc:	00000013          	nop
80000bc0:	02c12403          	lw	s0,44(sp)
80000bc4:	03010113          	addi	sp,sp,48
80000bc8:	00008067          	ret

80000bcc <_prtl16>:
80000bcc:	fd010113          	addi	sp,sp,-48
80000bd0:	02812623          	sw	s0,44(sp)
80000bd4:	03010413          	addi	s0,sp,48
80000bd8:	fca42e23          	sw	a0,-36(s0)
80000bdc:	fcb42c23          	sw	a1,-40(s0)
80000be0:	fe040023          	sb	zero,-32(s0)
80000be4:	00100793          	li	a5,1
80000be8:	fef42623          	sw	a5,-20(s0)
80000bec:	0440006f          	j	80000c30 <_prtl16+0x64>
80000bf0:	fdc42783          	lw	a5,-36(s0)
80000bf4:	00f7f793          	andi	a5,a5,15
80000bf8:	00007717          	auipc	a4,0x7
80000bfc:	03870713          	addi	a4,a4,56 # 80007c30 <_ctype_+0x150>
80000c00:	00f707b3          	add	a5,a4,a5
80000c04:	0007c703          	lbu	a4,0(a5)
80000c08:	fec42783          	lw	a5,-20(s0)
80000c0c:	ff078793          	addi	a5,a5,-16
80000c10:	008787b3          	add	a5,a5,s0
80000c14:	fee78823          	sb	a4,-16(a5)
80000c18:	fdc42783          	lw	a5,-36(s0)
80000c1c:	4047d793          	srai	a5,a5,0x4
80000c20:	fcf42e23          	sw	a5,-36(s0)
80000c24:	fec42783          	lw	a5,-20(s0)
80000c28:	00178793          	addi	a5,a5,1
80000c2c:	fef42623          	sw	a5,-20(s0)
80000c30:	fec42703          	lw	a4,-20(s0)
80000c34:	00800793          	li	a5,8
80000c38:	fae7dce3          	bge	a5,a4,80000bf0 <_prtl16+0x24>
80000c3c:	00800793          	li	a5,8
80000c40:	fef42623          	sw	a5,-20(s0)
80000c44:	0100006f          	j	80000c54 <_prtl16+0x88>
80000c48:	fec42783          	lw	a5,-20(s0)
80000c4c:	fff78793          	addi	a5,a5,-1
80000c50:	fef42623          	sw	a5,-20(s0)
80000c54:	fec42783          	lw	a5,-20(s0)
80000c58:	ff078793          	addi	a5,a5,-16
80000c5c:	008787b3          	add	a5,a5,s0
80000c60:	ff07c703          	lbu	a4,-16(a5)
80000c64:	03000793          	li	a5,48
80000c68:	fef700e3          	beq	a4,a5,80000c48 <_prtl16+0x7c>
80000c6c:	fec42783          	lw	a5,-20(s0)
80000c70:	02079e63          	bnez	a5,80000cac <_prtl16+0xe0>
80000c74:	fec42783          	lw	a5,-20(s0)
80000c78:	00178793          	addi	a5,a5,1
80000c7c:	fef42623          	sw	a5,-20(s0)
80000c80:	02c0006f          	j	80000cac <_prtl16+0xe0>
80000c84:	fec42703          	lw	a4,-20(s0)
80000c88:	fff70793          	addi	a5,a4,-1
80000c8c:	fef42623          	sw	a5,-20(s0)
80000c90:	fd842783          	lw	a5,-40(s0)
80000c94:	00178693          	addi	a3,a5,1
80000c98:	fcd42c23          	sw	a3,-40(s0)
80000c9c:	ff070713          	addi	a4,a4,-16
80000ca0:	00870733          	add	a4,a4,s0
80000ca4:	ff074703          	lbu	a4,-16(a4)
80000ca8:	00e78023          	sb	a4,0(a5)
80000cac:	fec42783          	lw	a5,-20(s0)
80000cb0:	fc07dae3          	bgez	a5,80000c84 <_prtl16+0xb8>
80000cb4:	00000013          	nop
80000cb8:	00000013          	nop
80000cbc:	02c12403          	lw	s0,44(sp)
80000cc0:	03010113          	addi	sp,sp,48
80000cc4:	00008067          	ret

80000cc8 <_prtX16>:
80000cc8:	fd010113          	addi	sp,sp,-48
80000ccc:	02812623          	sw	s0,44(sp)
80000cd0:	03010413          	addi	s0,sp,48
80000cd4:	fca42e23          	sw	a0,-36(s0)
80000cd8:	fcb42c23          	sw	a1,-40(s0)
80000cdc:	fe040023          	sb	zero,-32(s0)
80000ce0:	00100793          	li	a5,1
80000ce4:	fef42623          	sw	a5,-20(s0)
80000ce8:	0440006f          	j	80000d2c <_prtX16+0x64>
80000cec:	fdc42783          	lw	a5,-36(s0)
80000cf0:	00f7f793          	andi	a5,a5,15
80000cf4:	00007717          	auipc	a4,0x7
80000cf8:	f5070713          	addi	a4,a4,-176 # 80007c44 <_ctype_+0x164>
80000cfc:	00f707b3          	add	a5,a4,a5
80000d00:	0007c703          	lbu	a4,0(a5)
80000d04:	fec42783          	lw	a5,-20(s0)
80000d08:	ff078793          	addi	a5,a5,-16
80000d0c:	008787b3          	add	a5,a5,s0
80000d10:	fee78823          	sb	a4,-16(a5)
80000d14:	fdc42783          	lw	a5,-36(s0)
80000d18:	4047d793          	srai	a5,a5,0x4
80000d1c:	fcf42e23          	sw	a5,-36(s0)
80000d20:	fec42783          	lw	a5,-20(s0)
80000d24:	00178793          	addi	a5,a5,1
80000d28:	fef42623          	sw	a5,-20(s0)
80000d2c:	fec42703          	lw	a4,-20(s0)
80000d30:	00800793          	li	a5,8
80000d34:	fae7dce3          	bge	a5,a4,80000cec <_prtX16+0x24>
80000d38:	00800793          	li	a5,8
80000d3c:	fef42623          	sw	a5,-20(s0)
80000d40:	0100006f          	j	80000d50 <_prtX16+0x88>
80000d44:	fec42783          	lw	a5,-20(s0)
80000d48:	fff78793          	addi	a5,a5,-1
80000d4c:	fef42623          	sw	a5,-20(s0)
80000d50:	fec42783          	lw	a5,-20(s0)
80000d54:	ff078793          	addi	a5,a5,-16
80000d58:	008787b3          	add	a5,a5,s0
80000d5c:	ff07c703          	lbu	a4,-16(a5)
80000d60:	03000793          	li	a5,48
80000d64:	fef700e3          	beq	a4,a5,80000d44 <_prtX16+0x7c>
80000d68:	fec42783          	lw	a5,-20(s0)
80000d6c:	02079e63          	bnez	a5,80000da8 <_prtX16+0xe0>
80000d70:	fec42783          	lw	a5,-20(s0)
80000d74:	00178793          	addi	a5,a5,1
80000d78:	fef42623          	sw	a5,-20(s0)
80000d7c:	02c0006f          	j	80000da8 <_prtX16+0xe0>
80000d80:	fec42703          	lw	a4,-20(s0)
80000d84:	fff70793          	addi	a5,a4,-1
80000d88:	fef42623          	sw	a5,-20(s0)
80000d8c:	fd842783          	lw	a5,-40(s0)
80000d90:	00178693          	addi	a3,a5,1
80000d94:	fcd42c23          	sw	a3,-40(s0)
80000d98:	ff070713          	addi	a4,a4,-16
80000d9c:	00870733          	add	a4,a4,s0
80000da0:	ff074703          	lbu	a4,-16(a4)
80000da4:	00e78023          	sb	a4,0(a5)
80000da8:	fec42783          	lw	a5,-20(s0)
80000dac:	fc07dae3          	bgez	a5,80000d80 <_prtX16+0xb8>
80000db0:	00000013          	nop
80000db4:	00000013          	nop
80000db8:	02c12403          	lw	s0,44(sp)
80000dbc:	03010113          	addi	sp,sp,48
80000dc0:	00008067          	ret

80000dc4 <_prtl2>:
80000dc4:	fb010113          	addi	sp,sp,-80
80000dc8:	04812623          	sw	s0,76(sp)
80000dcc:	05010413          	addi	s0,sp,80
80000dd0:	faa42e23          	sw	a0,-68(s0)
80000dd4:	fab42c23          	sw	a1,-72(s0)
80000dd8:	fc040423          	sb	zero,-56(s0)
80000ddc:	00100793          	li	a5,1
80000de0:	fef42623          	sw	a5,-20(s0)
80000de4:	0440006f          	j	80000e28 <_prtl2+0x64>
80000de8:	fbc42783          	lw	a5,-68(s0)
80000dec:	0017f793          	andi	a5,a5,1
80000df0:	00079663          	bnez	a5,80000dfc <_prtl2+0x38>
80000df4:	03000793          	li	a5,48
80000df8:	0080006f          	j	80000e00 <_prtl2+0x3c>
80000dfc:	03100793          	li	a5,49
80000e00:	fec42703          	lw	a4,-20(s0)
80000e04:	ff070713          	addi	a4,a4,-16
80000e08:	00870733          	add	a4,a4,s0
80000e0c:	fcf70c23          	sb	a5,-40(a4)
80000e10:	fbc42783          	lw	a5,-68(s0)
80000e14:	4017d793          	srai	a5,a5,0x1
80000e18:	faf42e23          	sw	a5,-68(s0)
80000e1c:	fec42783          	lw	a5,-20(s0)
80000e20:	00178793          	addi	a5,a5,1
80000e24:	fef42623          	sw	a5,-20(s0)
80000e28:	fec42703          	lw	a4,-20(s0)
80000e2c:	02000793          	li	a5,32
80000e30:	fae7dce3          	bge	a5,a4,80000de8 <_prtl2+0x24>
80000e34:	02000793          	li	a5,32
80000e38:	fef42623          	sw	a5,-20(s0)
80000e3c:	0100006f          	j	80000e4c <_prtl2+0x88>
80000e40:	fec42783          	lw	a5,-20(s0)
80000e44:	fff78793          	addi	a5,a5,-1
80000e48:	fef42623          	sw	a5,-20(s0)
80000e4c:	fec42783          	lw	a5,-20(s0)
80000e50:	ff078793          	addi	a5,a5,-16
80000e54:	008787b3          	add	a5,a5,s0
80000e58:	fd87c703          	lbu	a4,-40(a5)
80000e5c:	03000793          	li	a5,48
80000e60:	fef700e3          	beq	a4,a5,80000e40 <_prtl2+0x7c>
80000e64:	fec42783          	lw	a5,-20(s0)
80000e68:	02079e63          	bnez	a5,80000ea4 <_prtl2+0xe0>
80000e6c:	fec42783          	lw	a5,-20(s0)
80000e70:	00178793          	addi	a5,a5,1
80000e74:	fef42623          	sw	a5,-20(s0)
80000e78:	02c0006f          	j	80000ea4 <_prtl2+0xe0>
80000e7c:	fec42703          	lw	a4,-20(s0)
80000e80:	fff70793          	addi	a5,a4,-1
80000e84:	fef42623          	sw	a5,-20(s0)
80000e88:	fb842783          	lw	a5,-72(s0)
80000e8c:	00178693          	addi	a3,a5,1
80000e90:	fad42c23          	sw	a3,-72(s0)
80000e94:	ff070713          	addi	a4,a4,-16
80000e98:	00870733          	add	a4,a4,s0
80000e9c:	fd874703          	lbu	a4,-40(a4)
80000ea0:	00e78023          	sb	a4,0(a5)
80000ea4:	fec42783          	lw	a5,-20(s0)
80000ea8:	fc07dae3          	bgez	a5,80000e7c <_prtl2+0xb8>
80000eac:	00000013          	nop
80000eb0:	00000013          	nop
80000eb4:	04c12403          	lw	s0,76(sp)
80000eb8:	05010113          	addi	sp,sp,80
80000ebc:	00008067          	ret

80000ec0 <_doscan>:
80000ec0:	fa010113          	addi	sp,sp,-96
80000ec4:	04112e23          	sw	ra,92(sp)
80000ec8:	04812c23          	sw	s0,88(sp)
80000ecc:	04912a23          	sw	s1,84(sp)
80000ed0:	05212823          	sw	s2,80(sp)
80000ed4:	05312623          	sw	s3,76(sp)
80000ed8:	06010413          	addi	s0,sp,96
80000edc:	00050913          	mv	s2,a0
80000ee0:	00058993          	mv	s3,a1
80000ee4:	fac42e23          	sw	a2,-68(s0)
80000ee8:	fad42c23          	sw	a3,-72(s0)
80000eec:	fae42a23          	sw	a4,-76(s0)
80000ef0:	faf42823          	sw	a5,-80(s0)
80000ef4:	fc042e23          	sw	zero,-36(s0)
80000ef8:	fc042423          	sw	zero,-56(s0)
80000efc:	00090793          	mv	a5,s2
80000f00:	00178913          	addi	s2,a5,1
80000f04:	0007c783          	lbu	a5,0(a5)
80000f08:	00078493          	mv	s1,a5
80000f0c:	02500793          	li	a5,37
80000f10:	04f48063          	beq	s1,a5,80000f50 <_doscan+0x90>
80000f14:	02500793          	li	a5,37
80000f18:	2497c463          	blt	a5,s1,80001160 <_doscan+0x2a0>
80000f1c:	02000793          	li	a5,32
80000f20:	1ef48063          	beq	s1,a5,80001100 <_doscan+0x240>
80000f24:	02000793          	li	a5,32
80000f28:	2297cc63          	blt	a5,s1,80001160 <_doscan+0x2a0>
80000f2c:	00048e63          	beqz	s1,80000f48 <_doscan+0x88>
80000f30:	2204c863          	bltz	s1,80001160 <_doscan+0x2a0>
80000f34:	00048793          	mv	a5,s1
80000f38:	ff778713          	addi	a4,a5,-9
80000f3c:	00100793          	li	a5,1
80000f40:	22e7e063          	bltu	a5,a4,80001160 <_doscan+0x2a0>
80000f44:	1bc0006f          	j	80001100 <_doscan+0x240>
80000f48:	fdc42783          	lw	a5,-36(s0)
80000f4c:	26c0006f          	j	800011b8 <_doscan+0x2f8>
80000f50:	00090793          	mv	a5,s2
80000f54:	00178913          	addi	s2,a5,1
80000f58:	0007c783          	lbu	a5,0(a5)
80000f5c:	00078493          	mv	s1,a5
80000f60:	02500793          	li	a5,37
80000f64:	1ef48c63          	beq	s1,a5,8000115c <_doscan+0x29c>
80000f68:	fc042a23          	sw	zero,-44(s0)
80000f6c:	02a00793          	li	a5,42
80000f70:	00f48a63          	beq	s1,a5,80000f84 <_doscan+0xc4>
80000f74:	00098793          	mv	a5,s3
80000f78:	00478993          	addi	s3,a5,4
80000f7c:	fcf42a23          	sw	a5,-44(s0)
80000f80:	0140006f          	j	80000f94 <_doscan+0xd4>
80000f84:	00090793          	mv	a5,s2
80000f88:	00178913          	addi	s2,a5,1
80000f8c:	0007c783          	lbu	a5,0(a5)
80000f90:	00078493          	mv	s1,a5
80000f94:	fc042c23          	sw	zero,-40(s0)
80000f98:	00100793          	li	a5,1
80000f9c:	fcf42823          	sw	a5,-48(s0)
80000fa0:	0340006f          	j	80000fd4 <_doscan+0x114>
80000fa4:	fd842703          	lw	a4,-40(s0)
80000fa8:	00070793          	mv	a5,a4
80000fac:	00279793          	slli	a5,a5,0x2
80000fb0:	00e787b3          	add	a5,a5,a4
80000fb4:	00179793          	slli	a5,a5,0x1
80000fb8:	00f487b3          	add	a5,s1,a5
80000fbc:	fd078793          	addi	a5,a5,-48
80000fc0:	fcf42c23          	sw	a5,-40(s0)
80000fc4:	00090793          	mv	a5,s2
80000fc8:	00178913          	addi	s2,a5,1
80000fcc:	0007c783          	lbu	a5,0(a5)
80000fd0:	00078493          	mv	s1,a5
80000fd4:	00048793          	mv	a5,s1
80000fd8:	00178713          	addi	a4,a5,1
80000fdc:	00007797          	auipc	a5,0x7
80000fe0:	b0478793          	addi	a5,a5,-1276 # 80007ae0 <_ctype_>
80000fe4:	00f707b3          	add	a5,a4,a5
80000fe8:	0007c783          	lbu	a5,0(a5)
80000fec:	0047f793          	andi	a5,a5,4
80000ff0:	fa079ae3          	bnez	a5,80000fa4 <_doscan+0xe4>
80000ff4:	fd842783          	lw	a5,-40(s0)
80000ff8:	00079863          	bnez	a5,80001008 <_doscan+0x148>
80000ffc:	000077b7          	lui	a5,0x7
80001000:	53078793          	addi	a5,a5,1328 # 7530 <__stack_size+0x6530>
80001004:	fcf42c23          	sw	a5,-40(s0)
80001008:	06c00793          	li	a5,108
8000100c:	02f49063          	bne	s1,a5,8000102c <_doscan+0x16c>
80001010:	00090793          	mv	a5,s2
80001014:	00178913          	addi	s2,a5,1
80001018:	0007c783          	lbu	a5,0(a5)
8000101c:	00078493          	mv	s1,a5
80001020:	00200793          	li	a5,2
80001024:	fcf42823          	sw	a5,-48(s0)
80001028:	0380006f          	j	80001060 <_doscan+0x1a0>
8000102c:	06800793          	li	a5,104
80001030:	00f49e63          	bne	s1,a5,8000104c <_doscan+0x18c>
80001034:	fc042823          	sw	zero,-48(s0)
80001038:	00090793          	mv	a5,s2
8000103c:	00178913          	addi	s2,a5,1
80001040:	0007c783          	lbu	a5,0(a5)
80001044:	00078493          	mv	s1,a5
80001048:	0180006f          	j	80001060 <_doscan+0x1a0>
8000104c:	05b00793          	li	a5,91
80001050:	00f49863          	bne	s1,a5,80001060 <_doscan+0x1a0>
80001054:	00090513          	mv	a0,s2
80001058:	708000ef          	jal	80001760 <_getccl>
8000105c:	00050913          	mv	s2,a0
80001060:	00048793          	mv	a5,s1
80001064:	00178713          	addi	a4,a5,1
80001068:	00007797          	auipc	a5,0x7
8000106c:	a7878793          	addi	a5,a5,-1416 # 80007ae0 <_ctype_>
80001070:	00f707b3          	add	a5,a4,a5
80001074:	0007c783          	lbu	a5,0(a5)
80001078:	0017f793          	andi	a5,a5,1
8000107c:	00078863          	beqz	a5,8000108c <_doscan+0x1cc>
80001080:	02048493          	addi	s1,s1,32
80001084:	00200793          	li	a5,2
80001088:	fcf42823          	sw	a5,-48(s0)
8000108c:	00049663          	bnez	s1,80001098 <_doscan+0x1d8>
80001090:	fff00793          	li	a5,-1
80001094:	1240006f          	j	800011b8 <_doscan+0x2f8>
80001098:	fc840793          	addi	a5,s0,-56
8000109c:	00f12023          	sw	a5,0(sp)
800010a0:	fb042883          	lw	a7,-80(s0)
800010a4:	fb442803          	lw	a6,-76(s0)
800010a8:	fb842783          	lw	a5,-72(s0)
800010ac:	fbc42703          	lw	a4,-68(s0)
800010b0:	fd042683          	lw	a3,-48(s0)
800010b4:	fd842603          	lw	a2,-40(s0)
800010b8:	00048593          	mv	a1,s1
800010bc:	fd442503          	lw	a0,-44(s0)
800010c0:	118000ef          	jal	800011d8 <_innum>
800010c4:	00050793          	mv	a5,a0
800010c8:	00078c63          	beqz	a5,800010e0 <_doscan+0x220>
800010cc:	fd442783          	lw	a5,-44(s0)
800010d0:	00078863          	beqz	a5,800010e0 <_doscan+0x220>
800010d4:	fdc42783          	lw	a5,-36(s0)
800010d8:	00178793          	addi	a5,a5,1
800010dc:	fcf42e23          	sw	a5,-36(s0)
800010e0:	fc842783          	lw	a5,-56(s0)
800010e4:	0c078263          	beqz	a5,800011a8 <_doscan+0x2e8>
800010e8:	fdc42783          	lw	a5,-36(s0)
800010ec:	00078663          	beqz	a5,800010f8 <_doscan+0x238>
800010f0:	fdc42783          	lw	a5,-36(s0)
800010f4:	0c40006f          	j	800011b8 <_doscan+0x2f8>
800010f8:	fff00793          	li	a5,-1
800010fc:	0bc0006f          	j	800011b8 <_doscan+0x2f8>
80001100:	00000013          	nop
80001104:	fbc42783          	lw	a5,-68(s0)
80001108:	fb042583          	lw	a1,-80(s0)
8000110c:	fb442503          	lw	a0,-76(s0)
80001110:	000780e7          	jalr	a5
80001114:	fca42623          	sw	a0,-52(s0)
80001118:	fcc42703          	lw	a4,-52(s0)
8000111c:	02000793          	li	a5,32
80001120:	fef702e3          	beq	a4,a5,80001104 <_doscan+0x244>
80001124:	fcc42703          	lw	a4,-52(s0)
80001128:	00900793          	li	a5,9
8000112c:	fcf70ce3          	beq	a4,a5,80001104 <_doscan+0x244>
80001130:	fcc42703          	lw	a4,-52(s0)
80001134:	00a00793          	li	a5,10
80001138:	fcf706e3          	beq	a4,a5,80001104 <_doscan+0x244>
8000113c:	fcc42703          	lw	a4,-52(s0)
80001140:	ffe00793          	li	a5,-2
80001144:	06f70663          	beq	a4,a5,800011b0 <_doscan+0x2f0>
80001148:	fb842783          	lw	a5,-72(s0)
8000114c:	fb042583          	lw	a1,-80(s0)
80001150:	fb442503          	lw	a0,-76(s0)
80001154:	000780e7          	jalr	a5
80001158:	0580006f          	j	800011b0 <_doscan+0x2f0>
8000115c:	00000013          	nop
80001160:	fbc42783          	lw	a5,-68(s0)
80001164:	fb042583          	lw	a1,-80(s0)
80001168:	fb442503          	lw	a0,-76(s0)
8000116c:	000780e7          	jalr	a5
80001170:	fca42623          	sw	a0,-52(s0)
80001174:	fcc42783          	lw	a5,-52(s0)
80001178:	d89782e3          	beq	a5,s1,80000efc <_doscan+0x3c>
8000117c:	fcc42703          	lw	a4,-52(s0)
80001180:	ffe00793          	li	a5,-2
80001184:	00f71663          	bne	a4,a5,80001190 <_doscan+0x2d0>
80001188:	fff00793          	li	a5,-1
8000118c:	02c0006f          	j	800011b8 <_doscan+0x2f8>
80001190:	fb842783          	lw	a5,-72(s0)
80001194:	fb042583          	lw	a1,-80(s0)
80001198:	fb442503          	lw	a0,-76(s0)
8000119c:	000780e7          	jalr	a5
800011a0:	fdc42783          	lw	a5,-36(s0)
800011a4:	0140006f          	j	800011b8 <_doscan+0x2f8>
800011a8:	00000013          	nop
800011ac:	d51ff06f          	j	80000efc <_doscan+0x3c>
800011b0:	00000013          	nop
800011b4:	d49ff06f          	j	80000efc <_doscan+0x3c>
800011b8:	00078513          	mv	a0,a5
800011bc:	05c12083          	lw	ra,92(sp)
800011c0:	05812403          	lw	s0,88(sp)
800011c4:	05412483          	lw	s1,84(sp)
800011c8:	05012903          	lw	s2,80(sp)
800011cc:	04c12983          	lw	s3,76(sp)
800011d0:	06010113          	addi	sp,sp,96
800011d4:	00008067          	ret

800011d8 <_innum>:
800011d8:	f8010113          	addi	sp,sp,-128
800011dc:	06112e23          	sw	ra,124(sp)
800011e0:	06812c23          	sw	s0,120(sp)
800011e4:	06912a23          	sw	s1,116(sp)
800011e8:	07212823          	sw	s2,112(sp)
800011ec:	08010413          	addi	s0,sp,128
800011f0:	f8a42e23          	sw	a0,-100(s0)
800011f4:	f8b42c23          	sw	a1,-104(s0)
800011f8:	f8c42a23          	sw	a2,-108(s0)
800011fc:	f8d42823          	sw	a3,-112(s0)
80001200:	f8e42623          	sw	a4,-116(s0)
80001204:	f8f42423          	sw	a5,-120(s0)
80001208:	f9042223          	sw	a6,-124(s0)
8000120c:	f9142023          	sw	a7,-128(s0)
80001210:	f9842703          	lw	a4,-104(s0)
80001214:	06300793          	li	a5,99
80001218:	00f70e63          	beq	a4,a5,80001234 <_innum+0x5c>
8000121c:	f9842703          	lw	a4,-104(s0)
80001220:	07300793          	li	a5,115
80001224:	00f70863          	beq	a4,a5,80001234 <_innum+0x5c>
80001228:	f9842703          	lw	a4,-104(s0)
8000122c:	05b00793          	li	a5,91
80001230:	04f71263          	bne	a4,a5,80001274 <_innum+0x9c>
80001234:	f9c42783          	lw	a5,-100(s0)
80001238:	00078863          	beqz	a5,80001248 <_innum+0x70>
8000123c:	f9c42783          	lw	a5,-100(s0)
80001240:	0007a503          	lw	a0,0(a5)
80001244:	0080006f          	j	8000124c <_innum+0x74>
80001248:	00000513          	li	a0,0
8000124c:	00042883          	lw	a7,0(s0)
80001250:	f8042803          	lw	a6,-128(s0)
80001254:	f8442783          	lw	a5,-124(s0)
80001258:	f8842703          	lw	a4,-120(s0)
8000125c:	f8c42683          	lw	a3,-116(s0)
80001260:	f9442603          	lw	a2,-108(s0)
80001264:	f9842583          	lw	a1,-104(s0)
80001268:	304000ef          	jal	8000156c <_instr>
8000126c:	00050793          	mv	a5,a0
80001270:	2e00006f          	j	80001550 <_innum+0x378>
80001274:	fe042223          	sw	zero,-28(s0)
80001278:	fe042423          	sw	zero,-24(s0)
8000127c:	00a00913          	li	s2,10
80001280:	f9842703          	lw	a4,-104(s0)
80001284:	06f00793          	li	a5,111
80001288:	00f71663          	bne	a4,a5,80001294 <_innum+0xbc>
8000128c:	00800913          	li	s2,8
80001290:	0140006f          	j	800012a4 <_innum+0xcc>
80001294:	f9842703          	lw	a4,-104(s0)
80001298:	07800793          	li	a5,120
8000129c:	00f71463          	bne	a4,a5,800012a4 <_innum+0xcc>
800012a0:	01000913          	li	s2,16
800012a4:	fa040493          	addi	s1,s0,-96
800012a8:	fe042623          	sw	zero,-20(s0)
800012ac:	00000013          	nop
800012b0:	f8c42783          	lw	a5,-116(s0)
800012b4:	f8042583          	lw	a1,-128(s0)
800012b8:	f8442503          	lw	a0,-124(s0)
800012bc:	000780e7          	jalr	a5
800012c0:	00050793          	mv	a5,a0
800012c4:	0ff7f093          	zext.b	ra,a5
800012c8:	02000793          	li	a5,32
800012cc:	fef082e3          	beq	ra,a5,800012b0 <_innum+0xd8>
800012d0:	00900793          	li	a5,9
800012d4:	fcf08ee3          	beq	ra,a5,800012b0 <_innum+0xd8>
800012d8:	00a00793          	li	a5,10
800012dc:	fcf08ae3          	beq	ra,a5,800012b0 <_innum+0xd8>
800012e0:	02d00793          	li	a5,45
800012e4:	04f09263          	bne	ra,a5,80001328 <_innum+0x150>
800012e8:	fec42783          	lw	a5,-20(s0)
800012ec:	00178793          	addi	a5,a5,1
800012f0:	fef42623          	sw	a5,-20(s0)
800012f4:	00048793          	mv	a5,s1
800012f8:	00178493          	addi	s1,a5,1
800012fc:	00178023          	sb	ra,0(a5)
80001300:	f8c42783          	lw	a5,-116(s0)
80001304:	f8042583          	lw	a1,-128(s0)
80001308:	f8442503          	lw	a0,-124(s0)
8000130c:	000780e7          	jalr	a5
80001310:	00050793          	mv	a5,a0
80001314:	0ff7f093          	zext.b	ra,a5
80001318:	f9442783          	lw	a5,-108(s0)
8000131c:	fff78793          	addi	a5,a5,-1
80001320:	f8f42a23          	sw	a5,-108(s0)
80001324:	1540006f          	j	80001478 <_innum+0x2a0>
80001328:	02b00793          	li	a5,43
8000132c:	14f09663          	bne	ra,a5,80001478 <_innum+0x2a0>
80001330:	f9442783          	lw	a5,-108(s0)
80001334:	fff78793          	addi	a5,a5,-1
80001338:	f8f42a23          	sw	a5,-108(s0)
8000133c:	f8c42783          	lw	a5,-116(s0)
80001340:	f8042583          	lw	a1,-128(s0)
80001344:	f8442503          	lw	a0,-124(s0)
80001348:	000780e7          	jalr	a5
8000134c:	00050793          	mv	a5,a0
80001350:	0ff7f093          	zext.b	ra,a5
80001354:	1240006f          	j	80001478 <_innum+0x2a0>
80001358:	00008793          	mv	a5,ra
8000135c:	00178713          	addi	a4,a5,1
80001360:	00006797          	auipc	a5,0x6
80001364:	78078793          	addi	a5,a5,1920 # 80007ae0 <_ctype_>
80001368:	00f707b3          	add	a5,a4,a5
8000136c:	0007c783          	lbu	a5,0(a5)
80001370:	0047f793          	andi	a5,a5,4
80001374:	00079663          	bnez	a5,80001380 <_innum+0x1a8>
80001378:	01000793          	li	a5,16
8000137c:	10f91863          	bne	s2,a5,8000148c <_innum+0x2b4>
80001380:	06000793          	li	a5,96
80001384:	0017f663          	bgeu	a5,ra,80001390 <_innum+0x1b8>
80001388:	06600793          	li	a5,102
8000138c:	0017fa63          	bgeu	a5,ra,800013a0 <_innum+0x1c8>
80001390:	04000793          	li	a5,64
80001394:	0e17fc63          	bgeu	a5,ra,8000148c <_innum+0x2b4>
80001398:	04600793          	li	a5,70
8000139c:	0e17e863          	bltu	a5,ra,8000148c <_innum+0x2b4>
800013a0:	fe842783          	lw	a5,-24(s0)
800013a4:	00178793          	addi	a5,a5,1
800013a8:	fef42423          	sw	a5,-24(s0)
800013ac:	00800793          	li	a5,8
800013b0:	00f91a63          	bne	s2,a5,800013c4 <_innum+0x1ec>
800013b4:	fe442783          	lw	a5,-28(s0)
800013b8:	00379793          	slli	a5,a5,0x3
800013bc:	fef42223          	sw	a5,-28(s0)
800013c0:	0340006f          	j	800013f4 <_innum+0x21c>
800013c4:	00a00793          	li	a5,10
800013c8:	02f91063          	bne	s2,a5,800013e8 <_innum+0x210>
800013cc:	fe442783          	lw	a5,-28(s0)
800013d0:	00279713          	slli	a4,a5,0x2
800013d4:	fe442783          	lw	a5,-28(s0)
800013d8:	00f707b3          	add	a5,a4,a5
800013dc:	00179793          	slli	a5,a5,0x1
800013e0:	fef42223          	sw	a5,-28(s0)
800013e4:	0100006f          	j	800013f4 <_innum+0x21c>
800013e8:	fe442783          	lw	a5,-28(s0)
800013ec:	00479793          	slli	a5,a5,0x4
800013f0:	fef42223          	sw	a5,-28(s0)
800013f4:	fe142023          	sw	ra,-32(s0)
800013f8:	02f00793          	li	a5,47
800013fc:	0017fc63          	bgeu	a5,ra,80001414 <_innum+0x23c>
80001400:	03900793          	li	a5,57
80001404:	0017e863          	bltu	a5,ra,80001414 <_innum+0x23c>
80001408:	fd008793          	addi	a5,ra,-48
8000140c:	0ff7f093          	zext.b	ra,a5
80001410:	0280006f          	j	80001438 <_innum+0x260>
80001414:	06000793          	li	a5,96
80001418:	0017fc63          	bgeu	a5,ra,80001430 <_innum+0x258>
8000141c:	06600793          	li	a5,102
80001420:	0017e863          	bltu	a5,ra,80001430 <_innum+0x258>
80001424:	fa908793          	addi	a5,ra,-87
80001428:	0ff7f093          	zext.b	ra,a5
8000142c:	00c0006f          	j	80001438 <_innum+0x260>
80001430:	fc908793          	addi	a5,ra,-55
80001434:	0ff7f093          	zext.b	ra,a5
80001438:	00008713          	mv	a4,ra
8000143c:	fe442783          	lw	a5,-28(s0)
80001440:	00e787b3          	add	a5,a5,a4
80001444:	fef42223          	sw	a5,-28(s0)
80001448:	fe042783          	lw	a5,-32(s0)
8000144c:	0ff7f093          	zext.b	ra,a5
80001450:	00000013          	nop
80001454:	00048793          	mv	a5,s1
80001458:	00178493          	addi	s1,a5,1
8000145c:	00178023          	sb	ra,0(a5)
80001460:	f8c42783          	lw	a5,-116(s0)
80001464:	f8042583          	lw	a1,-128(s0)
80001468:	f8442503          	lw	a0,-124(s0)
8000146c:	000780e7          	jalr	a5
80001470:	00050793          	mv	a5,a0
80001474:	0ff7f093          	zext.b	ra,a5
80001478:	f9442783          	lw	a5,-108(s0)
8000147c:	fff78793          	addi	a5,a5,-1
80001480:	f8f42a23          	sw	a5,-108(s0)
80001484:	f9442783          	lw	a5,-108(s0)
80001488:	ec07d8e3          	bgez	a5,80001358 <_innum+0x180>
8000148c:	fec42783          	lw	a5,-20(s0)
80001490:	00078863          	beqz	a5,800014a0 <_innum+0x2c8>
80001494:	fe442783          	lw	a5,-28(s0)
80001498:	40f007b3          	neg	a5,a5
8000149c:	fef42223          	sw	a5,-28(s0)
800014a0:	f8842783          	lw	a5,-120(s0)
800014a4:	f8042583          	lw	a1,-128(s0)
800014a8:	f8442503          	lw	a0,-124(s0)
800014ac:	000780e7          	jalr	a5
800014b0:	00042783          	lw	a5,0(s0)
800014b4:	0007a023          	sw	zero,0(a5)
800014b8:	f9c42783          	lw	a5,-100(s0)
800014bc:	00078663          	beqz	a5,800014c8 <_innum+0x2f0>
800014c0:	fa040793          	addi	a5,s0,-96
800014c4:	00f49663          	bne	s1,a5,800014d0 <_innum+0x2f8>
800014c8:	00000793          	li	a5,0
800014cc:	0840006f          	j	80001550 <_innum+0x378>
800014d0:	00048793          	mv	a5,s1
800014d4:	00078023          	sb	zero,0(a5)
800014d8:	f9042703          	lw	a4,-112(s0)
800014dc:	00200793          	li	a5,2
800014e0:	04f70c63          	beq	a4,a5,80001538 <_innum+0x360>
800014e4:	f9042703          	lw	a4,-112(s0)
800014e8:	00200793          	li	a5,2
800014ec:	06e7c063          	blt	a5,a4,8000154c <_innum+0x374>
800014f0:	f9042783          	lw	a5,-112(s0)
800014f4:	00078a63          	beqz	a5,80001508 <_innum+0x330>
800014f8:	f9042703          	lw	a4,-112(s0)
800014fc:	00100793          	li	a5,1
80001500:	02f70263          	beq	a4,a5,80001524 <_innum+0x34c>
80001504:	0480006f          	j	8000154c <_innum+0x374>
80001508:	f9c42783          	lw	a5,-100(s0)
8000150c:	0007a783          	lw	a5,0(a5)
80001510:	fe442703          	lw	a4,-28(s0)
80001514:	01071713          	slli	a4,a4,0x10
80001518:	41075713          	srai	a4,a4,0x10
8000151c:	00e79023          	sh	a4,0(a5)
80001520:	02c0006f          	j	8000154c <_innum+0x374>
80001524:	f9c42783          	lw	a5,-100(s0)
80001528:	0007a783          	lw	a5,0(a5)
8000152c:	fe442703          	lw	a4,-28(s0)
80001530:	00e7a023          	sw	a4,0(a5)
80001534:	0180006f          	j	8000154c <_innum+0x374>
80001538:	f9c42783          	lw	a5,-100(s0)
8000153c:	0007a783          	lw	a5,0(a5)
80001540:	fe442703          	lw	a4,-28(s0)
80001544:	00e7a023          	sw	a4,0(a5)
80001548:	00000013          	nop
8000154c:	00100793          	li	a5,1
80001550:	00078513          	mv	a0,a5
80001554:	07c12083          	lw	ra,124(sp)
80001558:	07812403          	lw	s0,120(sp)
8000155c:	07412483          	lw	s1,116(sp)
80001560:	07012903          	lw	s2,112(sp)
80001564:	08010113          	addi	sp,sp,128
80001568:	00008067          	ret

8000156c <_instr>:
8000156c:	fb010113          	addi	sp,sp,-80
80001570:	04112623          	sw	ra,76(sp)
80001574:	04812423          	sw	s0,72(sp)
80001578:	04912223          	sw	s1,68(sp)
8000157c:	05212023          	sw	s2,64(sp)
80001580:	03312e23          	sw	s3,60(sp)
80001584:	05010413          	addi	s0,sp,80
80001588:	00050493          	mv	s1,a0
8000158c:	fcb42623          	sw	a1,-52(s0)
80001590:	fcc42423          	sw	a2,-56(s0)
80001594:	fcd42223          	sw	a3,-60(s0)
80001598:	fce42023          	sw	a4,-64(s0)
8000159c:	faf42e23          	sw	a5,-68(s0)
800015a0:	fb042c23          	sw	a6,-72(s0)
800015a4:	fb142a23          	sw	a7,-76(s0)
800015a8:	fb442783          	lw	a5,-76(s0)
800015ac:	0007a023          	sw	zero,0(a5)
800015b0:	00048993          	mv	s3,s1
800015b4:	fcc42703          	lw	a4,-52(s0)
800015b8:	06300793          	li	a5,99
800015bc:	00f71e63          	bne	a4,a5,800015d8 <_instr+0x6c>
800015c0:	fc842703          	lw	a4,-56(s0)
800015c4:	000077b7          	lui	a5,0x7
800015c8:	53078793          	addi	a5,a5,1328 # 7530 <__stack_size+0x6530>
800015cc:	00f71663          	bne	a4,a5,800015d8 <_instr+0x6c>
800015d0:	00100793          	li	a5,1
800015d4:	fcf42423          	sw	a5,-56(s0)
800015d8:	fc042e23          	sw	zero,-36(s0)
800015dc:	fcc42703          	lw	a4,-52(s0)
800015e0:	07300793          	li	a5,115
800015e4:	00f71c63          	bne	a4,a5,800015fc <_instr+0x90>
800015e8:	00100793          	li	a5,1
800015ec:	fcf42e23          	sw	a5,-36(s0)
800015f0:	00c0006f          	j	800015fc <_instr+0x90>
800015f4:	ffe00793          	li	a5,-2
800015f8:	04f90063          	beq	s2,a5,80001638 <_instr+0xcc>
800015fc:	fc442783          	lw	a5,-60(s0)
80001600:	fb842583          	lw	a1,-72(s0)
80001604:	fbc42503          	lw	a0,-68(s0)
80001608:	000780e7          	jalr	a5
8000160c:	00050793          	mv	a5,a0
80001610:	00078913          	mv	s2,a5
80001614:	00007797          	auipc	a5,0x7
80001618:	a2478793          	addi	a5,a5,-1500 # 80008038 <_sctab>
8000161c:	012787b3          	add	a5,a5,s2
80001620:	0007c783          	lbu	a5,0(a5)
80001624:	00078713          	mv	a4,a5
80001628:	fdc42783          	lw	a5,-36(s0)
8000162c:	00f777b3          	and	a5,a4,a5
80001630:	fc0792e3          	bnez	a5,800015f4 <_instr+0x88>
80001634:	0080006f          	j	8000163c <_instr+0xd0>
80001638:	00000013          	nop
8000163c:	00100793          	li	a5,1
80001640:	fcf42e23          	sw	a5,-36(s0)
80001644:	fcc42703          	lw	a4,-52(s0)
80001648:	06300793          	li	a5,99
8000164c:	00f71663          	bne	a4,a5,80001658 <_instr+0xec>
80001650:	fc042e23          	sw	zero,-36(s0)
80001654:	05c0006f          	j	800016b0 <_instr+0x144>
80001658:	fcc42703          	lw	a4,-52(s0)
8000165c:	05b00793          	li	a5,91
80001660:	04f71863          	bne	a4,a5,800016b0 <_instr+0x144>
80001664:	00200793          	li	a5,2
80001668:	fcf42e23          	sw	a5,-36(s0)
8000166c:	0440006f          	j	800016b0 <_instr+0x144>
80001670:	00048a63          	beqz	s1,80001684 <_instr+0x118>
80001674:	00048793          	mv	a5,s1
80001678:	00178493          	addi	s1,a5,1
8000167c:	0ff97713          	zext.b	a4,s2
80001680:	00e78023          	sb	a4,0(a5)
80001684:	fc842783          	lw	a5,-56(s0)
80001688:	fff78793          	addi	a5,a5,-1
8000168c:	fcf42423          	sw	a5,-56(s0)
80001690:	fc842783          	lw	a5,-56(s0)
80001694:	04f05463          	blez	a5,800016dc <_instr+0x170>
80001698:	fc442783          	lw	a5,-60(s0)
8000169c:	fb842583          	lw	a1,-72(s0)
800016a0:	fbc42503          	lw	a0,-68(s0)
800016a4:	000780e7          	jalr	a5
800016a8:	00050793          	mv	a5,a0
800016ac:	00078913          	mv	s2,a5
800016b0:	ffe00793          	li	a5,-2
800016b4:	02f90663          	beq	s2,a5,800016e0 <_instr+0x174>
800016b8:	00007797          	auipc	a5,0x7
800016bc:	98078793          	addi	a5,a5,-1664 # 80008038 <_sctab>
800016c0:	012787b3          	add	a5,a5,s2
800016c4:	0007c783          	lbu	a5,0(a5)
800016c8:	00078713          	mv	a4,a5
800016cc:	fdc42783          	lw	a5,-36(s0)
800016d0:	00f777b3          	and	a5,a4,a5
800016d4:	f8078ee3          	beqz	a5,80001670 <_instr+0x104>
800016d8:	0080006f          	j	800016e0 <_instr+0x174>
800016dc:	00000013          	nop
800016e0:	ffe00793          	li	a5,-2
800016e4:	02f90463          	beq	s2,a5,8000170c <_instr+0x1a0>
800016e8:	fc842783          	lw	a5,-56(s0)
800016ec:	00f05a63          	blez	a5,80001700 <_instr+0x194>
800016f0:	fc042783          	lw	a5,-64(s0)
800016f4:	fb842583          	lw	a1,-72(s0)
800016f8:	fbc42503          	lw	a0,-68(s0)
800016fc:	000780e7          	jalr	a5
80001700:	fb442783          	lw	a5,-76(s0)
80001704:	0007a023          	sw	zero,0(a5)
80001708:	0100006f          	j	80001718 <_instr+0x1ac>
8000170c:	fb442783          	lw	a5,-76(s0)
80001710:	00100713          	li	a4,1
80001714:	00e7a023          	sw	a4,0(a5)
80001718:	02048263          	beqz	s1,8000173c <_instr+0x1d0>
8000171c:	03348063          	beq	s1,s3,8000173c <_instr+0x1d0>
80001720:	fcc42703          	lw	a4,-52(s0)
80001724:	06300793          	li	a5,99
80001728:	00f70663          	beq	a4,a5,80001734 <_instr+0x1c8>
8000172c:	00048793          	mv	a5,s1
80001730:	00078023          	sb	zero,0(a5)
80001734:	00100793          	li	a5,1
80001738:	0080006f          	j	80001740 <_instr+0x1d4>
8000173c:	00000793          	li	a5,0
80001740:	00078513          	mv	a0,a5
80001744:	04c12083          	lw	ra,76(sp)
80001748:	04812403          	lw	s0,72(sp)
8000174c:	04412483          	lw	s1,68(sp)
80001750:	04012903          	lw	s2,64(sp)
80001754:	03c12983          	lw	s3,60(sp)
80001758:	05010113          	addi	sp,sp,80
8000175c:	00008067          	ret

80001760 <_getccl>:
80001760:	fd010113          	addi	sp,sp,-48
80001764:	02812623          	sw	s0,44(sp)
80001768:	03010413          	addi	s0,sp,48
8000176c:	fca42e23          	sw	a0,-36(s0)
80001770:	fe042423          	sw	zero,-24(s0)
80001774:	fdc42783          	lw	a5,-36(s0)
80001778:	0007c703          	lbu	a4,0(a5)
8000177c:	05e00793          	li	a5,94
80001780:	00f71e63          	bne	a4,a5,8000179c <_getccl+0x3c>
80001784:	fe842783          	lw	a5,-24(s0)
80001788:	00178793          	addi	a5,a5,1
8000178c:	fef42423          	sw	a5,-24(s0)
80001790:	fdc42783          	lw	a5,-36(s0)
80001794:	00178793          	addi	a5,a5,1
80001798:	fcf42e23          	sw	a5,-36(s0)
8000179c:	fe042623          	sw	zero,-20(s0)
800017a0:	07c0006f          	j	8000181c <_getccl+0xbc>
800017a4:	fe842783          	lw	a5,-24(s0)
800017a8:	02078c63          	beqz	a5,800017e0 <_getccl+0x80>
800017ac:	00007717          	auipc	a4,0x7
800017b0:	88c70713          	addi	a4,a4,-1908 # 80008038 <_sctab>
800017b4:	fec42783          	lw	a5,-20(s0)
800017b8:	00f707b3          	add	a5,a4,a5
800017bc:	0007c783          	lbu	a5,0(a5)
800017c0:	ffd7f793          	andi	a5,a5,-3
800017c4:	0ff7f713          	zext.b	a4,a5
800017c8:	00007697          	auipc	a3,0x7
800017cc:	87068693          	addi	a3,a3,-1936 # 80008038 <_sctab>
800017d0:	fec42783          	lw	a5,-20(s0)
800017d4:	00f687b3          	add	a5,a3,a5
800017d8:	00e78023          	sb	a4,0(a5)
800017dc:	0340006f          	j	80001810 <_getccl+0xb0>
800017e0:	00007717          	auipc	a4,0x7
800017e4:	85870713          	addi	a4,a4,-1960 # 80008038 <_sctab>
800017e8:	fec42783          	lw	a5,-20(s0)
800017ec:	00f707b3          	add	a5,a4,a5
800017f0:	0007c783          	lbu	a5,0(a5)
800017f4:	0027e793          	ori	a5,a5,2
800017f8:	0ff7f713          	zext.b	a4,a5
800017fc:	00007697          	auipc	a3,0x7
80001800:	83c68693          	addi	a3,a3,-1988 # 80008038 <_sctab>
80001804:	fec42783          	lw	a5,-20(s0)
80001808:	00f687b3          	add	a5,a3,a5
8000180c:	00e78023          	sb	a4,0(a5)
80001810:	fec42783          	lw	a5,-20(s0)
80001814:	00178793          	addi	a5,a5,1
80001818:	fef42623          	sw	a5,-20(s0)
8000181c:	fec42703          	lw	a4,-20(s0)
80001820:	07f00793          	li	a5,127
80001824:	f8e7d0e3          	bge	a5,a4,800017a4 <_getccl+0x44>
80001828:	0940006f          	j	800018bc <_getccl+0x15c>
8000182c:	fe842783          	lw	a5,-24(s0)
80001830:	02078e63          	beqz	a5,8000186c <_getccl+0x10c>
80001834:	fec42783          	lw	a5,-20(s0)
80001838:	00178713          	addi	a4,a5,1
8000183c:	fee42623          	sw	a4,-20(s0)
80001840:	00006717          	auipc	a4,0x6
80001844:	7f870713          	addi	a4,a4,2040 # 80008038 <_sctab>
80001848:	00f70733          	add	a4,a4,a5
8000184c:	00074703          	lbu	a4,0(a4)
80001850:	00276713          	ori	a4,a4,2
80001854:	0ff77713          	zext.b	a4,a4
80001858:	00006697          	auipc	a3,0x6
8000185c:	7e068693          	addi	a3,a3,2016 # 80008038 <_sctab>
80001860:	00f687b3          	add	a5,a3,a5
80001864:	00e78023          	sb	a4,0(a5)
80001868:	0380006f          	j	800018a0 <_getccl+0x140>
8000186c:	fec42783          	lw	a5,-20(s0)
80001870:	00178713          	addi	a4,a5,1
80001874:	fee42623          	sw	a4,-20(s0)
80001878:	00006717          	auipc	a4,0x6
8000187c:	7c070713          	addi	a4,a4,1984 # 80008038 <_sctab>
80001880:	00f70733          	add	a4,a4,a5
80001884:	00074703          	lbu	a4,0(a4)
80001888:	ffd77713          	andi	a4,a4,-3
8000188c:	0ff77713          	zext.b	a4,a4
80001890:	00006697          	auipc	a3,0x6
80001894:	7a868693          	addi	a3,a3,1960 # 80008038 <_sctab>
80001898:	00f687b3          	add	a5,a3,a5
8000189c:	00e78023          	sb	a4,0(a5)
800018a0:	fec42783          	lw	a5,-20(s0)
800018a4:	00079c63          	bnez	a5,800018bc <_getccl+0x15c>
800018a8:	fdc42783          	lw	a5,-36(s0)
800018ac:	fff78793          	addi	a5,a5,-1
800018b0:	fcf42e23          	sw	a5,-36(s0)
800018b4:	fdc42783          	lw	a5,-36(s0)
800018b8:	02c0006f          	j	800018e4 <_getccl+0x184>
800018bc:	fdc42783          	lw	a5,-36(s0)
800018c0:	00178713          	addi	a4,a5,1
800018c4:	fce42e23          	sw	a4,-36(s0)
800018c8:	0007c783          	lbu	a5,0(a5)
800018cc:	fef42623          	sw	a5,-20(s0)
800018d0:	fec42783          	lw	a5,-20(s0)
800018d4:	07f7f713          	andi	a4,a5,127
800018d8:	05d00793          	li	a5,93
800018dc:	f4f718e3          	bne	a4,a5,8000182c <_getccl+0xcc>
800018e0:	fdc42783          	lw	a5,-36(s0)
800018e4:	00078513          	mv	a0,a5
800018e8:	02c12403          	lw	s0,44(sp)
800018ec:	03010113          	addi	sp,sp,48
800018f0:	00008067          	ret

800018f4 <_fdoprnt2>:
800018f4:	f8010113          	addi	sp,sp,-128
800018f8:	06112e23          	sw	ra,124(sp)
800018fc:	06812c23          	sw	s0,120(sp)
80001900:	08010413          	addi	s0,sp,128
80001904:	f8a42e23          	sw	a0,-100(s0)
80001908:	f8b42c23          	sw	a1,-104(s0)
8000190c:	f8c42a23          	sw	a2,-108(s0)
80001910:	f8d42823          	sw	a3,-112(s0)
80001914:	f8e42623          	sw	a4,-116(s0)
80001918:	0200006f          	j	80001938 <_fdoprnt2+0x44>
8000191c:	fc842783          	lw	a5,-56(s0)
80001920:	62078263          	beqz	a5,80001f44 <_fdoprnt2+0x650>
80001924:	f9442783          	lw	a5,-108(s0)
80001928:	fc842603          	lw	a2,-56(s0)
8000192c:	f9042583          	lw	a1,-112(s0)
80001930:	f8c42503          	lw	a0,-116(s0)
80001934:	000780e7          	jalr	a5
80001938:	f9c42783          	lw	a5,-100(s0)
8000193c:	00178713          	addi	a4,a5,1
80001940:	f8e42e23          	sw	a4,-100(s0)
80001944:	0007c783          	lbu	a5,0(a5)
80001948:	fcf42423          	sw	a5,-56(s0)
8000194c:	fc842703          	lw	a4,-56(s0)
80001950:	02500793          	li	a5,37
80001954:	fcf714e3          	bne	a4,a5,8000191c <_fdoprnt2+0x28>
80001958:	f9c42783          	lw	a5,-100(s0)
8000195c:	0007c703          	lbu	a4,0(a5)
80001960:	02500793          	li	a5,37
80001964:	02f71863          	bne	a4,a5,80001994 <_fdoprnt2+0xa0>
80001968:	f9c42783          	lw	a5,-100(s0)
8000196c:	00178713          	addi	a4,a5,1
80001970:	f8e42e23          	sw	a4,-100(s0)
80001974:	0007c783          	lbu	a5,0(a5)
80001978:	00078713          	mv	a4,a5
8000197c:	f9442783          	lw	a5,-108(s0)
80001980:	00070613          	mv	a2,a4
80001984:	f9042583          	lw	a1,-112(s0)
80001988:	f8c42503          	lw	a0,-116(s0)
8000198c:	000780e7          	jalr	a5
80001990:	5b00006f          	j	80001f40 <_fdoprnt2+0x64c>
80001994:	f9c42783          	lw	a5,-100(s0)
80001998:	0007c783          	lbu	a5,0(a5)
8000199c:	fd378793          	addi	a5,a5,-45
800019a0:	0017b793          	seqz	a5,a5
800019a4:	0ff7f793          	zext.b	a5,a5
800019a8:	fcf42223          	sw	a5,-60(s0)
800019ac:	fc442783          	lw	a5,-60(s0)
800019b0:	00078863          	beqz	a5,800019c0 <_fdoprnt2+0xcc>
800019b4:	f9c42783          	lw	a5,-100(s0)
800019b8:	00178793          	addi	a5,a5,1
800019bc:	f8f42e23          	sw	a5,-100(s0)
800019c0:	f9c42783          	lw	a5,-100(s0)
800019c4:	0007c703          	lbu	a4,0(a5)
800019c8:	03000793          	li	a5,48
800019cc:	00f71c63          	bne	a4,a5,800019e4 <_fdoprnt2+0xf0>
800019d0:	f9c42783          	lw	a5,-100(s0)
800019d4:	00178713          	addi	a4,a5,1
800019d8:	f8e42e23          	sw	a4,-100(s0)
800019dc:	0007c783          	lbu	a5,0(a5)
800019e0:	0080006f          	j	800019e8 <_fdoprnt2+0xf4>
800019e4:	02000793          	li	a5,32
800019e8:	fef401a3          	sb	a5,-29(s0)
800019ec:	fc042c23          	sw	zero,-40(s0)
800019f0:	f9c42783          	lw	a5,-100(s0)
800019f4:	0007c703          	lbu	a4,0(a5)
800019f8:	02a00793          	li	a5,42
800019fc:	04f71e63          	bne	a4,a5,80001a58 <_fdoprnt2+0x164>
80001a00:	f9842783          	lw	a5,-104(s0)
80001a04:	00478713          	addi	a4,a5,4
80001a08:	f8e42c23          	sw	a4,-104(s0)
80001a0c:	0007a783          	lw	a5,0(a5)
80001a10:	fcf42c23          	sw	a5,-40(s0)
80001a14:	f9c42783          	lw	a5,-100(s0)
80001a18:	00178793          	addi	a5,a5,1
80001a1c:	f8f42e23          	sw	a5,-100(s0)
80001a20:	0580006f          	j	80001a78 <_fdoprnt2+0x184>
80001a24:	fd842703          	lw	a4,-40(s0)
80001a28:	00070793          	mv	a5,a4
80001a2c:	00279793          	slli	a5,a5,0x2
80001a30:	00e787b3          	add	a5,a5,a4
80001a34:	00179793          	slli	a5,a5,0x1
80001a38:	00078693          	mv	a3,a5
80001a3c:	f9c42783          	lw	a5,-100(s0)
80001a40:	00178713          	addi	a4,a5,1
80001a44:	f8e42e23          	sw	a4,-100(s0)
80001a48:	0007c783          	lbu	a5,0(a5)
80001a4c:	00f687b3          	add	a5,a3,a5
80001a50:	fd078793          	addi	a5,a5,-48
80001a54:	fcf42c23          	sw	a5,-40(s0)
80001a58:	f9c42783          	lw	a5,-100(s0)
80001a5c:	0007c703          	lbu	a4,0(a5)
80001a60:	02f00793          	li	a5,47
80001a64:	00e7fa63          	bgeu	a5,a4,80001a78 <_fdoprnt2+0x184>
80001a68:	f9c42783          	lw	a5,-100(s0)
80001a6c:	0007c703          	lbu	a4,0(a5)
80001a70:	03900793          	li	a5,57
80001a74:	fae7f8e3          	bgeu	a5,a4,80001a24 <_fdoprnt2+0x130>
80001a78:	fc042e23          	sw	zero,-36(s0)
80001a7c:	f9c42783          	lw	a5,-100(s0)
80001a80:	0007c703          	lbu	a4,0(a5)
80001a84:	02e00793          	li	a5,46
80001a88:	08f71c63          	bne	a4,a5,80001b20 <_fdoprnt2+0x22c>
80001a8c:	f9c42783          	lw	a5,-100(s0)
80001a90:	00178793          	addi	a5,a5,1
80001a94:	f8f42e23          	sw	a5,-100(s0)
80001a98:	f9c42783          	lw	a5,-100(s0)
80001a9c:	0007c703          	lbu	a4,0(a5)
80001aa0:	02a00793          	li	a5,42
80001aa4:	04f71e63          	bne	a4,a5,80001b00 <_fdoprnt2+0x20c>
80001aa8:	f9842783          	lw	a5,-104(s0)
80001aac:	00478713          	addi	a4,a5,4
80001ab0:	f8e42c23          	sw	a4,-104(s0)
80001ab4:	0007a783          	lw	a5,0(a5)
80001ab8:	fcf42e23          	sw	a5,-36(s0)
80001abc:	f9c42783          	lw	a5,-100(s0)
80001ac0:	00178793          	addi	a5,a5,1
80001ac4:	f8f42e23          	sw	a5,-100(s0)
80001ac8:	0580006f          	j	80001b20 <_fdoprnt2+0x22c>
80001acc:	fdc42703          	lw	a4,-36(s0)
80001ad0:	00070793          	mv	a5,a4
80001ad4:	00279793          	slli	a5,a5,0x2
80001ad8:	00e787b3          	add	a5,a5,a4
80001adc:	00179793          	slli	a5,a5,0x1
80001ae0:	00078693          	mv	a3,a5
80001ae4:	f9c42783          	lw	a5,-100(s0)
80001ae8:	00178713          	addi	a4,a5,1
80001aec:	f8e42e23          	sw	a4,-100(s0)
80001af0:	0007c783          	lbu	a5,0(a5)
80001af4:	00f687b3          	add	a5,a3,a5
80001af8:	fd078793          	addi	a5,a5,-48
80001afc:	fcf42e23          	sw	a5,-36(s0)
80001b00:	f9c42783          	lw	a5,-100(s0)
80001b04:	0007c703          	lbu	a4,0(a5)
80001b08:	02f00793          	li	a5,47
80001b0c:	00e7fa63          	bgeu	a5,a4,80001b20 <_fdoprnt2+0x22c>
80001b10:	f9c42783          	lw	a5,-100(s0)
80001b14:	0007c703          	lbu	a4,0(a5)
80001b18:	03900793          	li	a5,57
80001b1c:	fae7f8e3          	bgeu	a5,a4,80001acc <_fdoprnt2+0x1d8>
80001b20:	fac40793          	addi	a5,s0,-84
80001b24:	fef42423          	sw	a5,-24(s0)
80001b28:	f9c42783          	lw	a5,-100(s0)
80001b2c:	00178713          	addi	a4,a5,1
80001b30:	f8e42e23          	sw	a4,-100(s0)
80001b34:	0007c783          	lbu	a5,0(a5)
80001b38:	fcf42023          	sw	a5,-64(s0)
80001b3c:	fc042783          	lw	a5,-64(s0)
80001b40:	00079e63          	bnez	a5,80001b5c <_fdoprnt2+0x268>
80001b44:	f9442783          	lw	a5,-108(s0)
80001b48:	02500613          	li	a2,37
80001b4c:	f9042583          	lw	a1,-112(s0)
80001b50:	f8c42503          	lw	a0,-116(s0)
80001b54:	000780e7          	jalr	a5
80001b58:	3f00006f          	j	80001f48 <_fdoprnt2+0x654>
80001b5c:	fc0409a3          	sb	zero,-45(s0)
80001b60:	fc042783          	lw	a5,-64(s0)
80001b64:	fa878793          	addi	a5,a5,-88
80001b68:	02000713          	li	a4,32
80001b6c:	1cf76e63          	bltu	a4,a5,80001d48 <_fdoprnt2+0x454>
80001b70:	00279713          	slli	a4,a5,0x2
80001b74:	00006797          	auipc	a5,0x6
80001b78:	0ec78793          	addi	a5,a5,236 # 80007c60 <_ctype_+0x180>
80001b7c:	00f707b3          	add	a5,a4,a5
80001b80:	0007a703          	lw	a4,0(a5)
80001b84:	00006797          	auipc	a5,0x6
80001b88:	0dc78793          	addi	a5,a5,220 # 80007c60 <_ctype_+0x180>
80001b8c:	00f707b3          	add	a5,a4,a5
80001b90:	00078067          	jr	a5
80001b94:	f9842783          	lw	a5,-104(s0)
80001b98:	00478713          	addi	a4,a5,4
80001b9c:	f8e42c23          	sw	a4,-104(s0)
80001ba0:	0007a783          	lw	a5,0(a5)
80001ba4:	0ff7f793          	zext.b	a5,a5
80001ba8:	faf40623          	sb	a5,-84(s0)
80001bac:	fa0406a3          	sb	zero,-83(s0)
80001bb0:	fc042e23          	sw	zero,-36(s0)
80001bb4:	02000793          	li	a5,32
80001bb8:	fef401a3          	sb	a5,-29(s0)
80001bbc:	1a40006f          	j	80001d60 <_fdoprnt2+0x46c>
80001bc0:	f9842783          	lw	a5,-104(s0)
80001bc4:	00478713          	addi	a4,a5,4
80001bc8:	f8e42c23          	sw	a4,-104(s0)
80001bcc:	0007a783          	lw	a5,0(a5)
80001bd0:	fef42423          	sw	a5,-24(s0)
80001bd4:	fe842783          	lw	a5,-24(s0)
80001bd8:	00079863          	bnez	a5,80001be8 <_fdoprnt2+0x2f4>
80001bdc:	00006797          	auipc	a5,0x6
80001be0:	07c78793          	addi	a5,a5,124 # 80007c58 <_ctype_+0x178>
80001be4:	fef42423          	sw	a5,-24(s0)
80001be8:	02000793          	li	a5,32
80001bec:	fef401a3          	sb	a5,-29(s0)
80001bf0:	1700006f          	j	80001d60 <_fdoprnt2+0x46c>
80001bf4:	f9842783          	lw	a5,-104(s0)
80001bf8:	00478713          	addi	a4,a5,4
80001bfc:	f8e42c23          	sw	a4,-104(s0)
80001c00:	0007a783          	lw	a5,0(a5)
80001c04:	fcf42623          	sw	a5,-52(s0)
80001c08:	fcc42783          	lw	a5,-52(s0)
80001c0c:	0007dc63          	bgez	a5,80001c24 <_fdoprnt2+0x330>
80001c10:	02d00793          	li	a5,45
80001c14:	fcf409a3          	sb	a5,-45(s0)
80001c18:	fcc42783          	lw	a5,-52(s0)
80001c1c:	40f007b3          	neg	a5,a5
80001c20:	fcf42623          	sw	a5,-52(s0)
80001c24:	fe842583          	lw	a1,-24(s0)
80001c28:	fcc42503          	lw	a0,-52(s0)
80001c2c:	169000ef          	jal	80002594 <_prtl10>
80001c30:	1300006f          	j	80001d60 <_fdoprnt2+0x46c>
80001c34:	fc040923          	sb	zero,-46(s0)
80001c38:	f9842783          	lw	a5,-104(s0)
80001c3c:	00478713          	addi	a4,a5,4
80001c40:	f8e42c23          	sw	a4,-104(s0)
80001c44:	0007a783          	lw	a5,0(a5)
80001c48:	fcf42623          	sw	a5,-52(s0)
80001c4c:	0240006f          	j	80001c70 <_fdoprnt2+0x37c>
80001c50:	fcc42703          	lw	a4,-52(s0)
80001c54:	c46537b7          	lui	a5,0xc4653
80001c58:	60078793          	addi	a5,a5,1536 # c4653600 <__global_pointer+0x44649818>
80001c5c:	00f707b3          	add	a5,a4,a5
80001c60:	fcf42623          	sw	a5,-52(s0)
80001c64:	fd244783          	lbu	a5,-46(s0)
80001c68:	00178793          	addi	a5,a5,1
80001c6c:	fcf40923          	sb	a5,-46(s0)
80001c70:	fcc42783          	lw	a5,-52(s0)
80001c74:	fc07cee3          	bltz	a5,80001c50 <_fdoprnt2+0x35c>
80001c78:	fe842583          	lw	a1,-24(s0)
80001c7c:	fcc42503          	lw	a0,-52(s0)
80001c80:	115000ef          	jal	80002594 <_prtl10>
80001c84:	fe842783          	lw	a5,-24(s0)
80001c88:	0007c783          	lbu	a5,0(a5)
80001c8c:	fd244703          	lbu	a4,-46(s0)
80001c90:	00e787b3          	add	a5,a5,a4
80001c94:	0ff7f713          	zext.b	a4,a5
80001c98:	fe842783          	lw	a5,-24(s0)
80001c9c:	00e78023          	sb	a4,0(a5)
80001ca0:	fc042e23          	sw	zero,-36(s0)
80001ca4:	0bc0006f          	j	80001d60 <_fdoprnt2+0x46c>
80001ca8:	f9842783          	lw	a5,-104(s0)
80001cac:	00478713          	addi	a4,a5,4
80001cb0:	f8e42c23          	sw	a4,-104(s0)
80001cb4:	0007a783          	lw	a5,0(a5)
80001cb8:	fcf42623          	sw	a5,-52(s0)
80001cbc:	fe842583          	lw	a1,-24(s0)
80001cc0:	fcc42503          	lw	a0,-52(s0)
80001cc4:	1d1000ef          	jal	80002694 <_prtl8>
80001cc8:	fc042e23          	sw	zero,-36(s0)
80001ccc:	0940006f          	j	80001d60 <_fdoprnt2+0x46c>
80001cd0:	f9842783          	lw	a5,-104(s0)
80001cd4:	00478713          	addi	a4,a5,4
80001cd8:	f8e42c23          	sw	a4,-104(s0)
80001cdc:	0007a783          	lw	a5,0(a5)
80001ce0:	fcf42623          	sw	a5,-52(s0)
80001ce4:	fe842583          	lw	a1,-24(s0)
80001ce8:	fcc42503          	lw	a0,-52(s0)
80001cec:	3b1000ef          	jal	8000289c <_prtX16>
80001cf0:	fc042e23          	sw	zero,-36(s0)
80001cf4:	06c0006f          	j	80001d60 <_fdoprnt2+0x46c>
80001cf8:	f9842783          	lw	a5,-104(s0)
80001cfc:	00478713          	addi	a4,a5,4
80001d00:	f8e42c23          	sw	a4,-104(s0)
80001d04:	0007a783          	lw	a5,0(a5)
80001d08:	fcf42623          	sw	a5,-52(s0)
80001d0c:	fe842583          	lw	a1,-24(s0)
80001d10:	fcc42503          	lw	a0,-52(s0)
80001d14:	28d000ef          	jal	800027a0 <_prtl16>
80001d18:	fc042e23          	sw	zero,-36(s0)
80001d1c:	0440006f          	j	80001d60 <_fdoprnt2+0x46c>
80001d20:	f9842783          	lw	a5,-104(s0)
80001d24:	00478713          	addi	a4,a5,4
80001d28:	f8e42c23          	sw	a4,-104(s0)
80001d2c:	0007a783          	lw	a5,0(a5)
80001d30:	fcf42623          	sw	a5,-52(s0)
80001d34:	fe842583          	lw	a1,-24(s0)
80001d38:	fcc42503          	lw	a0,-52(s0)
80001d3c:	45d000ef          	jal	80002998 <_prtl2>
80001d40:	fc042e23          	sw	zero,-36(s0)
80001d44:	01c0006f          	j	80001d60 <_fdoprnt2+0x46c>
80001d48:	f9442783          	lw	a5,-108(s0)
80001d4c:	fc042603          	lw	a2,-64(s0)
80001d50:	f9042583          	lw	a1,-112(s0)
80001d54:	f8c42503          	lw	a0,-116(s0)
80001d58:	000780e7          	jalr	a5
80001d5c:	00000013          	nop
80001d60:	fe042223          	sw	zero,-28(s0)
80001d64:	0100006f          	j	80001d74 <_fdoprnt2+0x480>
80001d68:	fe442783          	lw	a5,-28(s0)
80001d6c:	00178793          	addi	a5,a5,1
80001d70:	fef42223          	sw	a5,-28(s0)
80001d74:	fe442783          	lw	a5,-28(s0)
80001d78:	fe842703          	lw	a4,-24(s0)
80001d7c:	00f707b3          	add	a5,a4,a5
80001d80:	0007c783          	lbu	a5,0(a5)
80001d84:	fe0792e3          	bnez	a5,80001d68 <_fdoprnt2+0x474>
80001d88:	fd842703          	lw	a4,-40(s0)
80001d8c:	05000793          	li	a5,80
80001d90:	00e7c663          	blt	a5,a4,80001d9c <_fdoprnt2+0x4a8>
80001d94:	fd842783          	lw	a5,-40(s0)
80001d98:	0007d463          	bgez	a5,80001da0 <_fdoprnt2+0x4ac>
80001d9c:	fc042c23          	sw	zero,-40(s0)
80001da0:	fdc42703          	lw	a4,-36(s0)
80001da4:	05000793          	li	a5,80
80001da8:	00e7c663          	blt	a5,a4,80001db4 <_fdoprnt2+0x4c0>
80001dac:	fdc42783          	lw	a5,-36(s0)
80001db0:	0007d463          	bgez	a5,80001db8 <_fdoprnt2+0x4c4>
80001db4:	fc042e23          	sw	zero,-36(s0)
80001db8:	fc042a23          	sw	zero,-44(s0)
80001dbc:	fdc42783          	lw	a5,-36(s0)
80001dc0:	00079663          	bnez	a5,80001dcc <_fdoprnt2+0x4d8>
80001dc4:	fd842783          	lw	a5,-40(s0)
80001dc8:	04078863          	beqz	a5,80001e18 <_fdoprnt2+0x524>
80001dcc:	fdc42783          	lw	a5,-36(s0)
80001dd0:	00078c63          	beqz	a5,80001de8 <_fdoprnt2+0x4f4>
80001dd4:	fe442703          	lw	a4,-28(s0)
80001dd8:	fdc42783          	lw	a5,-36(s0)
80001ddc:	00e7d663          	bge	a5,a4,80001de8 <_fdoprnt2+0x4f4>
80001de0:	fdc42783          	lw	a5,-36(s0)
80001de4:	fef42223          	sw	a5,-28(s0)
80001de8:	fd842783          	lw	a5,-40(s0)
80001dec:	00078a63          	beqz	a5,80001e00 <_fdoprnt2+0x50c>
80001df0:	fd842703          	lw	a4,-40(s0)
80001df4:	fe442783          	lw	a5,-28(s0)
80001df8:	40f707b3          	sub	a5,a4,a5
80001dfc:	fcf42a23          	sw	a5,-44(s0)
80001e00:	fd344703          	lbu	a4,-45(s0)
80001e04:	02d00793          	li	a5,45
80001e08:	00f71863          	bne	a4,a5,80001e18 <_fdoprnt2+0x524>
80001e0c:	fd442783          	lw	a5,-44(s0)
80001e10:	fff78793          	addi	a5,a5,-1
80001e14:	fcf42a23          	sw	a5,-44(s0)
80001e18:	fd344703          	lbu	a4,-45(s0)
80001e1c:	02d00793          	li	a5,45
80001e20:	02f71463          	bne	a4,a5,80001e48 <_fdoprnt2+0x554>
80001e24:	fe344703          	lbu	a4,-29(s0)
80001e28:	03000793          	li	a5,48
80001e2c:	00f71e63          	bne	a4,a5,80001e48 <_fdoprnt2+0x554>
80001e30:	fd344703          	lbu	a4,-45(s0)
80001e34:	f9442783          	lw	a5,-108(s0)
80001e38:	00070613          	mv	a2,a4
80001e3c:	f9042583          	lw	a1,-112(s0)
80001e40:	f8c42503          	lw	a0,-116(s0)
80001e44:	000780e7          	jalr	a5
80001e48:	fc442783          	lw	a5,-60(s0)
80001e4c:	02079e63          	bnez	a5,80001e88 <_fdoprnt2+0x594>
80001e50:	fe042623          	sw	zero,-20(s0)
80001e54:	0280006f          	j	80001e7c <_fdoprnt2+0x588>
80001e58:	fe344703          	lbu	a4,-29(s0)
80001e5c:	f9442783          	lw	a5,-108(s0)
80001e60:	00070613          	mv	a2,a4
80001e64:	f9042583          	lw	a1,-112(s0)
80001e68:	f8c42503          	lw	a0,-116(s0)
80001e6c:	000780e7          	jalr	a5
80001e70:	fec42783          	lw	a5,-20(s0)
80001e74:	00178793          	addi	a5,a5,1
80001e78:	fef42623          	sw	a5,-20(s0)
80001e7c:	fec42703          	lw	a4,-20(s0)
80001e80:	fd442783          	lw	a5,-44(s0)
80001e84:	fcf74ae3          	blt	a4,a5,80001e58 <_fdoprnt2+0x564>
80001e88:	fd344703          	lbu	a4,-45(s0)
80001e8c:	02d00793          	li	a5,45
80001e90:	02f71463          	bne	a4,a5,80001eb8 <_fdoprnt2+0x5c4>
80001e94:	fe344703          	lbu	a4,-29(s0)
80001e98:	02000793          	li	a5,32
80001e9c:	00f71e63          	bne	a4,a5,80001eb8 <_fdoprnt2+0x5c4>
80001ea0:	fd344703          	lbu	a4,-45(s0)
80001ea4:	f9442783          	lw	a5,-108(s0)
80001ea8:	00070613          	mv	a2,a4
80001eac:	f9042583          	lw	a1,-112(s0)
80001eb0:	f8c42503          	lw	a0,-116(s0)
80001eb4:	000780e7          	jalr	a5
80001eb8:	fe042623          	sw	zero,-20(s0)
80001ebc:	0380006f          	j	80001ef4 <_fdoprnt2+0x600>
80001ec0:	fec42783          	lw	a5,-20(s0)
80001ec4:	fe842703          	lw	a4,-24(s0)
80001ec8:	00f707b3          	add	a5,a4,a5
80001ecc:	0007c783          	lbu	a5,0(a5)
80001ed0:	00078713          	mv	a4,a5
80001ed4:	f9442783          	lw	a5,-108(s0)
80001ed8:	00070613          	mv	a2,a4
80001edc:	f9042583          	lw	a1,-112(s0)
80001ee0:	f8c42503          	lw	a0,-116(s0)
80001ee4:	000780e7          	jalr	a5
80001ee8:	fec42783          	lw	a5,-20(s0)
80001eec:	00178793          	addi	a5,a5,1
80001ef0:	fef42623          	sw	a5,-20(s0)
80001ef4:	fec42703          	lw	a4,-20(s0)
80001ef8:	fe442783          	lw	a5,-28(s0)
80001efc:	fcf742e3          	blt	a4,a5,80001ec0 <_fdoprnt2+0x5cc>
80001f00:	fc442783          	lw	a5,-60(s0)
80001f04:	a2078ae3          	beqz	a5,80001938 <_fdoprnt2+0x44>
80001f08:	fe042623          	sw	zero,-20(s0)
80001f0c:	0280006f          	j	80001f34 <_fdoprnt2+0x640>
80001f10:	fe344703          	lbu	a4,-29(s0)
80001f14:	f9442783          	lw	a5,-108(s0)
80001f18:	00070613          	mv	a2,a4
80001f1c:	f9042583          	lw	a1,-112(s0)
80001f20:	f8c42503          	lw	a0,-116(s0)
80001f24:	000780e7          	jalr	a5
80001f28:	fec42783          	lw	a5,-20(s0)
80001f2c:	00178793          	addi	a5,a5,1
80001f30:	fef42623          	sw	a5,-20(s0)
80001f34:	fec42703          	lw	a4,-20(s0)
80001f38:	fd442783          	lw	a5,-44(s0)
80001f3c:	fcf74ae3          	blt	a4,a5,80001f10 <_fdoprnt2+0x61c>
80001f40:	9f9ff06f          	j	80001938 <_fdoprnt2+0x44>
80001f44:	00000013          	nop
80001f48:	07c12083          	lw	ra,124(sp)
80001f4c:	07812403          	lw	s0,120(sp)
80001f50:	08010113          	addi	sp,sp,128
80001f54:	00008067          	ret

80001f58 <_fdoprnt>:
80001f58:	f9010113          	addi	sp,sp,-112
80001f5c:	06112623          	sw	ra,108(sp)
80001f60:	06812423          	sw	s0,104(sp)
80001f64:	07010413          	addi	s0,sp,112
80001f68:	f8a42e23          	sw	a0,-100(s0)
80001f6c:	f8b42c23          	sw	a1,-104(s0)
80001f70:	f8c42a23          	sw	a2,-108(s0)
80001f74:	f8d42823          	sw	a3,-112(s0)
80001f78:	01c0006f          	j	80001f94 <_fdoprnt+0x3c>
80001f7c:	fc842783          	lw	a5,-56(s0)
80001f80:	60078063          	beqz	a5,80002580 <_fdoprnt+0x628>
80001f84:	f9442783          	lw	a5,-108(s0)
80001f88:	fc842583          	lw	a1,-56(s0)
80001f8c:	f9042503          	lw	a0,-112(s0)
80001f90:	000780e7          	jalr	a5
80001f94:	f9c42783          	lw	a5,-100(s0)
80001f98:	00178713          	addi	a4,a5,1
80001f9c:	f8e42e23          	sw	a4,-100(s0)
80001fa0:	0007c783          	lbu	a5,0(a5)
80001fa4:	fcf42423          	sw	a5,-56(s0)
80001fa8:	fc842703          	lw	a4,-56(s0)
80001fac:	02500793          	li	a5,37
80001fb0:	fcf716e3          	bne	a4,a5,80001f7c <_fdoprnt+0x24>
80001fb4:	f9c42783          	lw	a5,-100(s0)
80001fb8:	0007c703          	lbu	a4,0(a5)
80001fbc:	02500793          	li	a5,37
80001fc0:	02f71663          	bne	a4,a5,80001fec <_fdoprnt+0x94>
80001fc4:	f9c42783          	lw	a5,-100(s0)
80001fc8:	00178713          	addi	a4,a5,1
80001fcc:	f8e42e23          	sw	a4,-100(s0)
80001fd0:	0007c783          	lbu	a5,0(a5)
80001fd4:	00078713          	mv	a4,a5
80001fd8:	f9442783          	lw	a5,-108(s0)
80001fdc:	00070593          	mv	a1,a4
80001fe0:	f9042503          	lw	a0,-112(s0)
80001fe4:	000780e7          	jalr	a5
80001fe8:	5940006f          	j	8000257c <_fdoprnt+0x624>
80001fec:	f9c42783          	lw	a5,-100(s0)
80001ff0:	0007c783          	lbu	a5,0(a5)
80001ff4:	fd378793          	addi	a5,a5,-45
80001ff8:	0017b793          	seqz	a5,a5
80001ffc:	0ff7f793          	zext.b	a5,a5
80002000:	fcf42223          	sw	a5,-60(s0)
80002004:	fc442783          	lw	a5,-60(s0)
80002008:	00078863          	beqz	a5,80002018 <_fdoprnt+0xc0>
8000200c:	f9c42783          	lw	a5,-100(s0)
80002010:	00178793          	addi	a5,a5,1
80002014:	f8f42e23          	sw	a5,-100(s0)
80002018:	f9c42783          	lw	a5,-100(s0)
8000201c:	0007c703          	lbu	a4,0(a5)
80002020:	03000793          	li	a5,48
80002024:	00f71c63          	bne	a4,a5,8000203c <_fdoprnt+0xe4>
80002028:	f9c42783          	lw	a5,-100(s0)
8000202c:	00178713          	addi	a4,a5,1
80002030:	f8e42e23          	sw	a4,-100(s0)
80002034:	0007c783          	lbu	a5,0(a5)
80002038:	0080006f          	j	80002040 <_fdoprnt+0xe8>
8000203c:	02000793          	li	a5,32
80002040:	fef401a3          	sb	a5,-29(s0)
80002044:	fc042c23          	sw	zero,-40(s0)
80002048:	f9c42783          	lw	a5,-100(s0)
8000204c:	0007c703          	lbu	a4,0(a5)
80002050:	02a00793          	li	a5,42
80002054:	04f71e63          	bne	a4,a5,800020b0 <_fdoprnt+0x158>
80002058:	f9842783          	lw	a5,-104(s0)
8000205c:	00478713          	addi	a4,a5,4
80002060:	f8e42c23          	sw	a4,-104(s0)
80002064:	0007a783          	lw	a5,0(a5)
80002068:	fcf42c23          	sw	a5,-40(s0)
8000206c:	f9c42783          	lw	a5,-100(s0)
80002070:	00178793          	addi	a5,a5,1
80002074:	f8f42e23          	sw	a5,-100(s0)
80002078:	0580006f          	j	800020d0 <_fdoprnt+0x178>
8000207c:	fd842703          	lw	a4,-40(s0)
80002080:	00070793          	mv	a5,a4
80002084:	00279793          	slli	a5,a5,0x2
80002088:	00e787b3          	add	a5,a5,a4
8000208c:	00179793          	slli	a5,a5,0x1
80002090:	00078693          	mv	a3,a5
80002094:	f9c42783          	lw	a5,-100(s0)
80002098:	00178713          	addi	a4,a5,1
8000209c:	f8e42e23          	sw	a4,-100(s0)
800020a0:	0007c783          	lbu	a5,0(a5)
800020a4:	00f687b3          	add	a5,a3,a5
800020a8:	fd078793          	addi	a5,a5,-48
800020ac:	fcf42c23          	sw	a5,-40(s0)
800020b0:	f9c42783          	lw	a5,-100(s0)
800020b4:	0007c703          	lbu	a4,0(a5)
800020b8:	02f00793          	li	a5,47
800020bc:	00e7fa63          	bgeu	a5,a4,800020d0 <_fdoprnt+0x178>
800020c0:	f9c42783          	lw	a5,-100(s0)
800020c4:	0007c703          	lbu	a4,0(a5)
800020c8:	03900793          	li	a5,57
800020cc:	fae7f8e3          	bgeu	a5,a4,8000207c <_fdoprnt+0x124>
800020d0:	fc042e23          	sw	zero,-36(s0)
800020d4:	f9c42783          	lw	a5,-100(s0)
800020d8:	0007c703          	lbu	a4,0(a5)
800020dc:	02e00793          	li	a5,46
800020e0:	08f71c63          	bne	a4,a5,80002178 <_fdoprnt+0x220>
800020e4:	f9c42783          	lw	a5,-100(s0)
800020e8:	00178793          	addi	a5,a5,1
800020ec:	f8f42e23          	sw	a5,-100(s0)
800020f0:	f9c42783          	lw	a5,-100(s0)
800020f4:	0007c703          	lbu	a4,0(a5)
800020f8:	02a00793          	li	a5,42
800020fc:	04f71e63          	bne	a4,a5,80002158 <_fdoprnt+0x200>
80002100:	f9842783          	lw	a5,-104(s0)
80002104:	00478713          	addi	a4,a5,4
80002108:	f8e42c23          	sw	a4,-104(s0)
8000210c:	0007a783          	lw	a5,0(a5)
80002110:	fcf42e23          	sw	a5,-36(s0)
80002114:	f9c42783          	lw	a5,-100(s0)
80002118:	00178793          	addi	a5,a5,1
8000211c:	f8f42e23          	sw	a5,-100(s0)
80002120:	0580006f          	j	80002178 <_fdoprnt+0x220>
80002124:	fdc42703          	lw	a4,-36(s0)
80002128:	00070793          	mv	a5,a4
8000212c:	00279793          	slli	a5,a5,0x2
80002130:	00e787b3          	add	a5,a5,a4
80002134:	00179793          	slli	a5,a5,0x1
80002138:	00078693          	mv	a3,a5
8000213c:	f9c42783          	lw	a5,-100(s0)
80002140:	00178713          	addi	a4,a5,1
80002144:	f8e42e23          	sw	a4,-100(s0)
80002148:	0007c783          	lbu	a5,0(a5)
8000214c:	00f687b3          	add	a5,a3,a5
80002150:	fd078793          	addi	a5,a5,-48
80002154:	fcf42e23          	sw	a5,-36(s0)
80002158:	f9c42783          	lw	a5,-100(s0)
8000215c:	0007c703          	lbu	a4,0(a5)
80002160:	02f00793          	li	a5,47
80002164:	00e7fa63          	bgeu	a5,a4,80002178 <_fdoprnt+0x220>
80002168:	f9c42783          	lw	a5,-100(s0)
8000216c:	0007c703          	lbu	a4,0(a5)
80002170:	03900793          	li	a5,57
80002174:	fae7f8e3          	bgeu	a5,a4,80002124 <_fdoprnt+0x1cc>
80002178:	fac40793          	addi	a5,s0,-84
8000217c:	fef42423          	sw	a5,-24(s0)
80002180:	f9c42783          	lw	a5,-100(s0)
80002184:	00178713          	addi	a4,a5,1
80002188:	f8e42e23          	sw	a4,-100(s0)
8000218c:	0007c783          	lbu	a5,0(a5)
80002190:	fcf42023          	sw	a5,-64(s0)
80002194:	fc042783          	lw	a5,-64(s0)
80002198:	00079c63          	bnez	a5,800021b0 <_fdoprnt+0x258>
8000219c:	f9442783          	lw	a5,-108(s0)
800021a0:	02500593          	li	a1,37
800021a4:	f9042503          	lw	a0,-112(s0)
800021a8:	000780e7          	jalr	a5
800021ac:	3d80006f          	j	80002584 <_fdoprnt+0x62c>
800021b0:	fc0409a3          	sb	zero,-45(s0)
800021b4:	fc042783          	lw	a5,-64(s0)
800021b8:	fa878793          	addi	a5,a5,-88
800021bc:	02000713          	li	a4,32
800021c0:	1cf76e63          	bltu	a4,a5,8000239c <_fdoprnt+0x444>
800021c4:	00279713          	slli	a4,a5,0x2
800021c8:	00006797          	auipc	a5,0x6
800021cc:	b1c78793          	addi	a5,a5,-1252 # 80007ce4 <_ctype_+0x204>
800021d0:	00f707b3          	add	a5,a4,a5
800021d4:	0007a703          	lw	a4,0(a5)
800021d8:	00006797          	auipc	a5,0x6
800021dc:	b0c78793          	addi	a5,a5,-1268 # 80007ce4 <_ctype_+0x204>
800021e0:	00f707b3          	add	a5,a4,a5
800021e4:	00078067          	jr	a5
800021e8:	f9842783          	lw	a5,-104(s0)
800021ec:	00478713          	addi	a4,a5,4
800021f0:	f8e42c23          	sw	a4,-104(s0)
800021f4:	0007a783          	lw	a5,0(a5)
800021f8:	0ff7f793          	zext.b	a5,a5
800021fc:	faf40623          	sb	a5,-84(s0)
80002200:	fa0406a3          	sb	zero,-83(s0)
80002204:	fc042e23          	sw	zero,-36(s0)
80002208:	02000793          	li	a5,32
8000220c:	fef401a3          	sb	a5,-29(s0)
80002210:	1a00006f          	j	800023b0 <_fdoprnt+0x458>
80002214:	f9842783          	lw	a5,-104(s0)
80002218:	00478713          	addi	a4,a5,4
8000221c:	f8e42c23          	sw	a4,-104(s0)
80002220:	0007a783          	lw	a5,0(a5)
80002224:	fef42423          	sw	a5,-24(s0)
80002228:	fe842783          	lw	a5,-24(s0)
8000222c:	00079863          	bnez	a5,8000223c <_fdoprnt+0x2e4>
80002230:	00006797          	auipc	a5,0x6
80002234:	a2878793          	addi	a5,a5,-1496 # 80007c58 <_ctype_+0x178>
80002238:	fef42423          	sw	a5,-24(s0)
8000223c:	02000793          	li	a5,32
80002240:	fef401a3          	sb	a5,-29(s0)
80002244:	16c0006f          	j	800023b0 <_fdoprnt+0x458>
80002248:	f9842783          	lw	a5,-104(s0)
8000224c:	00478713          	addi	a4,a5,4
80002250:	f8e42c23          	sw	a4,-104(s0)
80002254:	0007a783          	lw	a5,0(a5)
80002258:	fcf42623          	sw	a5,-52(s0)
8000225c:	fcc42783          	lw	a5,-52(s0)
80002260:	0007dc63          	bgez	a5,80002278 <_fdoprnt+0x320>
80002264:	02d00793          	li	a5,45
80002268:	fcf409a3          	sb	a5,-45(s0)
8000226c:	fcc42783          	lw	a5,-52(s0)
80002270:	40f007b3          	neg	a5,a5
80002274:	fcf42623          	sw	a5,-52(s0)
80002278:	fe842583          	lw	a1,-24(s0)
8000227c:	fcc42503          	lw	a0,-52(s0)
80002280:	314000ef          	jal	80002594 <_prtl10>
80002284:	12c0006f          	j	800023b0 <_fdoprnt+0x458>
80002288:	fc040923          	sb	zero,-46(s0)
8000228c:	f9842783          	lw	a5,-104(s0)
80002290:	00478713          	addi	a4,a5,4
80002294:	f8e42c23          	sw	a4,-104(s0)
80002298:	0007a783          	lw	a5,0(a5)
8000229c:	fcf42623          	sw	a5,-52(s0)
800022a0:	0240006f          	j	800022c4 <_fdoprnt+0x36c>
800022a4:	fcc42703          	lw	a4,-52(s0)
800022a8:	c46537b7          	lui	a5,0xc4653
800022ac:	60078793          	addi	a5,a5,1536 # c4653600 <__global_pointer+0x44649818>
800022b0:	00f707b3          	add	a5,a4,a5
800022b4:	fcf42623          	sw	a5,-52(s0)
800022b8:	fd244783          	lbu	a5,-46(s0)
800022bc:	00178793          	addi	a5,a5,1
800022c0:	fcf40923          	sb	a5,-46(s0)
800022c4:	fcc42783          	lw	a5,-52(s0)
800022c8:	fc07cee3          	bltz	a5,800022a4 <_fdoprnt+0x34c>
800022cc:	fe842583          	lw	a1,-24(s0)
800022d0:	fcc42503          	lw	a0,-52(s0)
800022d4:	2c0000ef          	jal	80002594 <_prtl10>
800022d8:	fe842783          	lw	a5,-24(s0)
800022dc:	0007c783          	lbu	a5,0(a5)
800022e0:	fd244703          	lbu	a4,-46(s0)
800022e4:	00e787b3          	add	a5,a5,a4
800022e8:	0ff7f713          	zext.b	a4,a5
800022ec:	fe842783          	lw	a5,-24(s0)
800022f0:	00e78023          	sb	a4,0(a5)
800022f4:	fc042e23          	sw	zero,-36(s0)
800022f8:	0b80006f          	j	800023b0 <_fdoprnt+0x458>
800022fc:	f9842783          	lw	a5,-104(s0)
80002300:	00478713          	addi	a4,a5,4
80002304:	f8e42c23          	sw	a4,-104(s0)
80002308:	0007a783          	lw	a5,0(a5)
8000230c:	fcf42623          	sw	a5,-52(s0)
80002310:	fe842583          	lw	a1,-24(s0)
80002314:	fcc42503          	lw	a0,-52(s0)
80002318:	37c000ef          	jal	80002694 <_prtl8>
8000231c:	fc042e23          	sw	zero,-36(s0)
80002320:	0900006f          	j	800023b0 <_fdoprnt+0x458>
80002324:	f9842783          	lw	a5,-104(s0)
80002328:	00478713          	addi	a4,a5,4
8000232c:	f8e42c23          	sw	a4,-104(s0)
80002330:	0007a783          	lw	a5,0(a5)
80002334:	fcf42623          	sw	a5,-52(s0)
80002338:	fe842583          	lw	a1,-24(s0)
8000233c:	fcc42503          	lw	a0,-52(s0)
80002340:	55c000ef          	jal	8000289c <_prtX16>
80002344:	fc042e23          	sw	zero,-36(s0)
80002348:	0680006f          	j	800023b0 <_fdoprnt+0x458>
8000234c:	f9842783          	lw	a5,-104(s0)
80002350:	00478713          	addi	a4,a5,4
80002354:	f8e42c23          	sw	a4,-104(s0)
80002358:	0007a783          	lw	a5,0(a5)
8000235c:	fcf42623          	sw	a5,-52(s0)
80002360:	fe842583          	lw	a1,-24(s0)
80002364:	fcc42503          	lw	a0,-52(s0)
80002368:	438000ef          	jal	800027a0 <_prtl16>
8000236c:	fc042e23          	sw	zero,-36(s0)
80002370:	0400006f          	j	800023b0 <_fdoprnt+0x458>
80002374:	f9842783          	lw	a5,-104(s0)
80002378:	00478713          	addi	a4,a5,4
8000237c:	f8e42c23          	sw	a4,-104(s0)
80002380:	0007a783          	lw	a5,0(a5)
80002384:	fcf42623          	sw	a5,-52(s0)
80002388:	fe842583          	lw	a1,-24(s0)
8000238c:	fcc42503          	lw	a0,-52(s0)
80002390:	608000ef          	jal	80002998 <_prtl2>
80002394:	fc042e23          	sw	zero,-36(s0)
80002398:	0180006f          	j	800023b0 <_fdoprnt+0x458>
8000239c:	f9442783          	lw	a5,-108(s0)
800023a0:	fc042583          	lw	a1,-64(s0)
800023a4:	f9042503          	lw	a0,-112(s0)
800023a8:	000780e7          	jalr	a5
800023ac:	00000013          	nop
800023b0:	fe042223          	sw	zero,-28(s0)
800023b4:	0100006f          	j	800023c4 <_fdoprnt+0x46c>
800023b8:	fe442783          	lw	a5,-28(s0)
800023bc:	00178793          	addi	a5,a5,1
800023c0:	fef42223          	sw	a5,-28(s0)
800023c4:	fe442783          	lw	a5,-28(s0)
800023c8:	fe842703          	lw	a4,-24(s0)
800023cc:	00f707b3          	add	a5,a4,a5
800023d0:	0007c783          	lbu	a5,0(a5)
800023d4:	fe0792e3          	bnez	a5,800023b8 <_fdoprnt+0x460>
800023d8:	fd842703          	lw	a4,-40(s0)
800023dc:	05000793          	li	a5,80
800023e0:	00e7c663          	blt	a5,a4,800023ec <_fdoprnt+0x494>
800023e4:	fd842783          	lw	a5,-40(s0)
800023e8:	0007d463          	bgez	a5,800023f0 <_fdoprnt+0x498>
800023ec:	fc042c23          	sw	zero,-40(s0)
800023f0:	fdc42703          	lw	a4,-36(s0)
800023f4:	05000793          	li	a5,80
800023f8:	00e7c663          	blt	a5,a4,80002404 <_fdoprnt+0x4ac>
800023fc:	fdc42783          	lw	a5,-36(s0)
80002400:	0007d463          	bgez	a5,80002408 <_fdoprnt+0x4b0>
80002404:	fc042e23          	sw	zero,-36(s0)
80002408:	fc042a23          	sw	zero,-44(s0)
8000240c:	fdc42783          	lw	a5,-36(s0)
80002410:	00079663          	bnez	a5,8000241c <_fdoprnt+0x4c4>
80002414:	fd842783          	lw	a5,-40(s0)
80002418:	04078863          	beqz	a5,80002468 <_fdoprnt+0x510>
8000241c:	fdc42783          	lw	a5,-36(s0)
80002420:	00078c63          	beqz	a5,80002438 <_fdoprnt+0x4e0>
80002424:	fe442703          	lw	a4,-28(s0)
80002428:	fdc42783          	lw	a5,-36(s0)
8000242c:	00e7d663          	bge	a5,a4,80002438 <_fdoprnt+0x4e0>
80002430:	fdc42783          	lw	a5,-36(s0)
80002434:	fef42223          	sw	a5,-28(s0)
80002438:	fd842783          	lw	a5,-40(s0)
8000243c:	00078a63          	beqz	a5,80002450 <_fdoprnt+0x4f8>
80002440:	fd842703          	lw	a4,-40(s0)
80002444:	fe442783          	lw	a5,-28(s0)
80002448:	40f707b3          	sub	a5,a4,a5
8000244c:	fcf42a23          	sw	a5,-44(s0)
80002450:	fd344703          	lbu	a4,-45(s0)
80002454:	02d00793          	li	a5,45
80002458:	00f71863          	bne	a4,a5,80002468 <_fdoprnt+0x510>
8000245c:	fd442783          	lw	a5,-44(s0)
80002460:	fff78793          	addi	a5,a5,-1
80002464:	fcf42a23          	sw	a5,-44(s0)
80002468:	fd344703          	lbu	a4,-45(s0)
8000246c:	02d00793          	li	a5,45
80002470:	02f71263          	bne	a4,a5,80002494 <_fdoprnt+0x53c>
80002474:	fe344703          	lbu	a4,-29(s0)
80002478:	03000793          	li	a5,48
8000247c:	00f71c63          	bne	a4,a5,80002494 <_fdoprnt+0x53c>
80002480:	fd344703          	lbu	a4,-45(s0)
80002484:	f9442783          	lw	a5,-108(s0)
80002488:	00070593          	mv	a1,a4
8000248c:	f9042503          	lw	a0,-112(s0)
80002490:	000780e7          	jalr	a5
80002494:	fc442783          	lw	a5,-60(s0)
80002498:	02079c63          	bnez	a5,800024d0 <_fdoprnt+0x578>
8000249c:	fe042623          	sw	zero,-20(s0)
800024a0:	0240006f          	j	800024c4 <_fdoprnt+0x56c>
800024a4:	fe344703          	lbu	a4,-29(s0)
800024a8:	f9442783          	lw	a5,-108(s0)
800024ac:	00070593          	mv	a1,a4
800024b0:	f9042503          	lw	a0,-112(s0)
800024b4:	000780e7          	jalr	a5
800024b8:	fec42783          	lw	a5,-20(s0)
800024bc:	00178793          	addi	a5,a5,1
800024c0:	fef42623          	sw	a5,-20(s0)
800024c4:	fec42703          	lw	a4,-20(s0)
800024c8:	fd442783          	lw	a5,-44(s0)
800024cc:	fcf74ce3          	blt	a4,a5,800024a4 <_fdoprnt+0x54c>
800024d0:	fd344703          	lbu	a4,-45(s0)
800024d4:	02d00793          	li	a5,45
800024d8:	02f71263          	bne	a4,a5,800024fc <_fdoprnt+0x5a4>
800024dc:	fe344703          	lbu	a4,-29(s0)
800024e0:	02000793          	li	a5,32
800024e4:	00f71c63          	bne	a4,a5,800024fc <_fdoprnt+0x5a4>
800024e8:	fd344703          	lbu	a4,-45(s0)
800024ec:	f9442783          	lw	a5,-108(s0)
800024f0:	00070593          	mv	a1,a4
800024f4:	f9042503          	lw	a0,-112(s0)
800024f8:	000780e7          	jalr	a5
800024fc:	fe042623          	sw	zero,-20(s0)
80002500:	0340006f          	j	80002534 <_fdoprnt+0x5dc>
80002504:	fec42783          	lw	a5,-20(s0)
80002508:	fe842703          	lw	a4,-24(s0)
8000250c:	00f707b3          	add	a5,a4,a5
80002510:	0007c783          	lbu	a5,0(a5)
80002514:	00078713          	mv	a4,a5
80002518:	f9442783          	lw	a5,-108(s0)
8000251c:	00070593          	mv	a1,a4
80002520:	f9042503          	lw	a0,-112(s0)
80002524:	000780e7          	jalr	a5
80002528:	fec42783          	lw	a5,-20(s0)
8000252c:	00178793          	addi	a5,a5,1
80002530:	fef42623          	sw	a5,-20(s0)
80002534:	fec42703          	lw	a4,-20(s0)
80002538:	fe442783          	lw	a5,-28(s0)
8000253c:	fcf744e3          	blt	a4,a5,80002504 <_fdoprnt+0x5ac>
80002540:	fc442783          	lw	a5,-60(s0)
80002544:	a40788e3          	beqz	a5,80001f94 <_fdoprnt+0x3c>
80002548:	fe042623          	sw	zero,-20(s0)
8000254c:	0240006f          	j	80002570 <_fdoprnt+0x618>
80002550:	fe344703          	lbu	a4,-29(s0)
80002554:	f9442783          	lw	a5,-108(s0)
80002558:	00070593          	mv	a1,a4
8000255c:	f9042503          	lw	a0,-112(s0)
80002560:	000780e7          	jalr	a5
80002564:	fec42783          	lw	a5,-20(s0)
80002568:	00178793          	addi	a5,a5,1
8000256c:	fef42623          	sw	a5,-20(s0)
80002570:	fec42703          	lw	a4,-20(s0)
80002574:	fd442783          	lw	a5,-44(s0)
80002578:	fcf74ce3          	blt	a4,a5,80002550 <_fdoprnt+0x5f8>
8000257c:	a19ff06f          	j	80001f94 <_fdoprnt+0x3c>
80002580:	00000013          	nop
80002584:	06c12083          	lw	ra,108(sp)
80002588:	06812403          	lw	s0,104(sp)
8000258c:	07010113          	addi	sp,sp,112
80002590:	00008067          	ret

80002594 <_prtl10>:
80002594:	fd010113          	addi	sp,sp,-48
80002598:	02812623          	sw	s0,44(sp)
8000259c:	03010413          	addi	s0,sp,48
800025a0:	fca42e23          	sw	a0,-36(s0)
800025a4:	fcb42c23          	sw	a1,-40(s0)
800025a8:	fe040023          	sb	zero,-32(s0)
800025ac:	00100793          	li	a5,1
800025b0:	fef42623          	sw	a5,-20(s0)
800025b4:	0480006f          	j	800025fc <_prtl10+0x68>
800025b8:	fdc42703          	lw	a4,-36(s0)
800025bc:	00a00793          	li	a5,10
800025c0:	02f767b3          	rem	a5,a4,a5
800025c4:	0ff7f793          	zext.b	a5,a5
800025c8:	03078793          	addi	a5,a5,48
800025cc:	0ff7f713          	zext.b	a4,a5
800025d0:	fec42783          	lw	a5,-20(s0)
800025d4:	ff078793          	addi	a5,a5,-16
800025d8:	008787b3          	add	a5,a5,s0
800025dc:	fee78823          	sb	a4,-16(a5)
800025e0:	fdc42703          	lw	a4,-36(s0)
800025e4:	00a00793          	li	a5,10
800025e8:	02f747b3          	div	a5,a4,a5
800025ec:	fcf42e23          	sw	a5,-36(s0)
800025f0:	fec42783          	lw	a5,-20(s0)
800025f4:	00178793          	addi	a5,a5,1
800025f8:	fef42623          	sw	a5,-20(s0)
800025fc:	fec42703          	lw	a4,-20(s0)
80002600:	00a00793          	li	a5,10
80002604:	fae7dae3          	bge	a5,a4,800025b8 <_prtl10+0x24>
80002608:	00a00793          	li	a5,10
8000260c:	fef42623          	sw	a5,-20(s0)
80002610:	0100006f          	j	80002620 <_prtl10+0x8c>
80002614:	fec42783          	lw	a5,-20(s0)
80002618:	fff78793          	addi	a5,a5,-1
8000261c:	fef42623          	sw	a5,-20(s0)
80002620:	fec42783          	lw	a5,-20(s0)
80002624:	ff078793          	addi	a5,a5,-16
80002628:	008787b3          	add	a5,a5,s0
8000262c:	ff07c703          	lbu	a4,-16(a5)
80002630:	03000793          	li	a5,48
80002634:	fef700e3          	beq	a4,a5,80002614 <_prtl10+0x80>
80002638:	fec42783          	lw	a5,-20(s0)
8000263c:	02079e63          	bnez	a5,80002678 <_prtl10+0xe4>
80002640:	fec42783          	lw	a5,-20(s0)
80002644:	00178793          	addi	a5,a5,1
80002648:	fef42623          	sw	a5,-20(s0)
8000264c:	02c0006f          	j	80002678 <_prtl10+0xe4>
80002650:	fec42703          	lw	a4,-20(s0)
80002654:	fff70793          	addi	a5,a4,-1
80002658:	fef42623          	sw	a5,-20(s0)
8000265c:	fd842783          	lw	a5,-40(s0)
80002660:	00178693          	addi	a3,a5,1
80002664:	fcd42c23          	sw	a3,-40(s0)
80002668:	ff070713          	addi	a4,a4,-16
8000266c:	00870733          	add	a4,a4,s0
80002670:	ff074703          	lbu	a4,-16(a4)
80002674:	00e78023          	sb	a4,0(a5)
80002678:	fec42783          	lw	a5,-20(s0)
8000267c:	fc07dae3          	bgez	a5,80002650 <_prtl10+0xbc>
80002680:	00000013          	nop
80002684:	00000013          	nop
80002688:	02c12403          	lw	s0,44(sp)
8000268c:	03010113          	addi	sp,sp,48
80002690:	00008067          	ret

80002694 <_prtl8>:
80002694:	fd010113          	addi	sp,sp,-48
80002698:	02812623          	sw	s0,44(sp)
8000269c:	03010413          	addi	s0,sp,48
800026a0:	fca42e23          	sw	a0,-36(s0)
800026a4:	fcb42c23          	sw	a1,-40(s0)
800026a8:	fe040023          	sb	zero,-32(s0)
800026ac:	00100793          	li	a5,1
800026b0:	fef42623          	sw	a5,-20(s0)
800026b4:	0440006f          	j	800026f8 <_prtl8+0x64>
800026b8:	fdc42783          	lw	a5,-36(s0)
800026bc:	0ff7f793          	zext.b	a5,a5
800026c0:	0077f793          	andi	a5,a5,7
800026c4:	0ff7f793          	zext.b	a5,a5
800026c8:	03078793          	addi	a5,a5,48
800026cc:	0ff7f713          	zext.b	a4,a5
800026d0:	fec42783          	lw	a5,-20(s0)
800026d4:	ff078793          	addi	a5,a5,-16
800026d8:	008787b3          	add	a5,a5,s0
800026dc:	fee78823          	sb	a4,-16(a5)
800026e0:	fdc42783          	lw	a5,-36(s0)
800026e4:	4037d793          	srai	a5,a5,0x3
800026e8:	fcf42e23          	sw	a5,-36(s0)
800026ec:	fec42783          	lw	a5,-20(s0)
800026f0:	00178793          	addi	a5,a5,1
800026f4:	fef42623          	sw	a5,-20(s0)
800026f8:	fec42703          	lw	a4,-20(s0)
800026fc:	00b00793          	li	a5,11
80002700:	fae7dce3          	bge	a5,a4,800026b8 <_prtl8+0x24>
80002704:	feb44783          	lbu	a5,-21(s0)
80002708:	0337f793          	andi	a5,a5,51
8000270c:	0ff7f793          	zext.b	a5,a5
80002710:	fef405a3          	sb	a5,-21(s0)
80002714:	00b00793          	li	a5,11
80002718:	fef42623          	sw	a5,-20(s0)
8000271c:	0100006f          	j	8000272c <_prtl8+0x98>
80002720:	fec42783          	lw	a5,-20(s0)
80002724:	fff78793          	addi	a5,a5,-1
80002728:	fef42623          	sw	a5,-20(s0)
8000272c:	fec42783          	lw	a5,-20(s0)
80002730:	ff078793          	addi	a5,a5,-16
80002734:	008787b3          	add	a5,a5,s0
80002738:	ff07c703          	lbu	a4,-16(a5)
8000273c:	03000793          	li	a5,48
80002740:	fef700e3          	beq	a4,a5,80002720 <_prtl8+0x8c>
80002744:	fec42783          	lw	a5,-20(s0)
80002748:	02079e63          	bnez	a5,80002784 <_prtl8+0xf0>
8000274c:	fec42783          	lw	a5,-20(s0)
80002750:	00178793          	addi	a5,a5,1
80002754:	fef42623          	sw	a5,-20(s0)
80002758:	02c0006f          	j	80002784 <_prtl8+0xf0>
8000275c:	fec42703          	lw	a4,-20(s0)
80002760:	fff70793          	addi	a5,a4,-1
80002764:	fef42623          	sw	a5,-20(s0)
80002768:	fd842783          	lw	a5,-40(s0)
8000276c:	00178693          	addi	a3,a5,1
80002770:	fcd42c23          	sw	a3,-40(s0)
80002774:	ff070713          	addi	a4,a4,-16
80002778:	00870733          	add	a4,a4,s0
8000277c:	ff074703          	lbu	a4,-16(a4)
80002780:	00e78023          	sb	a4,0(a5)
80002784:	fec42783          	lw	a5,-20(s0)
80002788:	fc07dae3          	bgez	a5,8000275c <_prtl8+0xc8>
8000278c:	00000013          	nop
80002790:	00000013          	nop
80002794:	02c12403          	lw	s0,44(sp)
80002798:	03010113          	addi	sp,sp,48
8000279c:	00008067          	ret

800027a0 <_prtl16>:
800027a0:	fd010113          	addi	sp,sp,-48
800027a4:	02812623          	sw	s0,44(sp)
800027a8:	03010413          	addi	s0,sp,48
800027ac:	fca42e23          	sw	a0,-36(s0)
800027b0:	fcb42c23          	sw	a1,-40(s0)
800027b4:	fe040023          	sb	zero,-32(s0)
800027b8:	00100793          	li	a5,1
800027bc:	fef42623          	sw	a5,-20(s0)
800027c0:	0440006f          	j	80002804 <_prtl16+0x64>
800027c4:	fdc42783          	lw	a5,-36(s0)
800027c8:	00f7f793          	andi	a5,a5,15
800027cc:	00005717          	auipc	a4,0x5
800027d0:	59c70713          	addi	a4,a4,1436 # 80007d68 <_ctype_+0x288>
800027d4:	00f707b3          	add	a5,a4,a5
800027d8:	0007c703          	lbu	a4,0(a5)
800027dc:	fec42783          	lw	a5,-20(s0)
800027e0:	ff078793          	addi	a5,a5,-16
800027e4:	008787b3          	add	a5,a5,s0
800027e8:	fee78823          	sb	a4,-16(a5)
800027ec:	fdc42783          	lw	a5,-36(s0)
800027f0:	4047d793          	srai	a5,a5,0x4
800027f4:	fcf42e23          	sw	a5,-36(s0)
800027f8:	fec42783          	lw	a5,-20(s0)
800027fc:	00178793          	addi	a5,a5,1
80002800:	fef42623          	sw	a5,-20(s0)
80002804:	fec42703          	lw	a4,-20(s0)
80002808:	00800793          	li	a5,8
8000280c:	fae7dce3          	bge	a5,a4,800027c4 <_prtl16+0x24>
80002810:	00800793          	li	a5,8
80002814:	fef42623          	sw	a5,-20(s0)
80002818:	0100006f          	j	80002828 <_prtl16+0x88>
8000281c:	fec42783          	lw	a5,-20(s0)
80002820:	fff78793          	addi	a5,a5,-1
80002824:	fef42623          	sw	a5,-20(s0)
80002828:	fec42783          	lw	a5,-20(s0)
8000282c:	ff078793          	addi	a5,a5,-16
80002830:	008787b3          	add	a5,a5,s0
80002834:	ff07c703          	lbu	a4,-16(a5)
80002838:	03000793          	li	a5,48
8000283c:	fef700e3          	beq	a4,a5,8000281c <_prtl16+0x7c>
80002840:	fec42783          	lw	a5,-20(s0)
80002844:	02079e63          	bnez	a5,80002880 <_prtl16+0xe0>
80002848:	fec42783          	lw	a5,-20(s0)
8000284c:	00178793          	addi	a5,a5,1
80002850:	fef42623          	sw	a5,-20(s0)
80002854:	02c0006f          	j	80002880 <_prtl16+0xe0>
80002858:	fec42703          	lw	a4,-20(s0)
8000285c:	fff70793          	addi	a5,a4,-1
80002860:	fef42623          	sw	a5,-20(s0)
80002864:	fd842783          	lw	a5,-40(s0)
80002868:	00178693          	addi	a3,a5,1
8000286c:	fcd42c23          	sw	a3,-40(s0)
80002870:	ff070713          	addi	a4,a4,-16
80002874:	00870733          	add	a4,a4,s0
80002878:	ff074703          	lbu	a4,-16(a4)
8000287c:	00e78023          	sb	a4,0(a5)
80002880:	fec42783          	lw	a5,-20(s0)
80002884:	fc07dae3          	bgez	a5,80002858 <_prtl16+0xb8>
80002888:	00000013          	nop
8000288c:	00000013          	nop
80002890:	02c12403          	lw	s0,44(sp)
80002894:	03010113          	addi	sp,sp,48
80002898:	00008067          	ret

8000289c <_prtX16>:
8000289c:	fd010113          	addi	sp,sp,-48
800028a0:	02812623          	sw	s0,44(sp)
800028a4:	03010413          	addi	s0,sp,48
800028a8:	fca42e23          	sw	a0,-36(s0)
800028ac:	fcb42c23          	sw	a1,-40(s0)
800028b0:	fe040023          	sb	zero,-32(s0)
800028b4:	00100793          	li	a5,1
800028b8:	fef42623          	sw	a5,-20(s0)
800028bc:	0440006f          	j	80002900 <_prtX16+0x64>
800028c0:	fdc42783          	lw	a5,-36(s0)
800028c4:	00f7f793          	andi	a5,a5,15
800028c8:	00005717          	auipc	a4,0x5
800028cc:	4b470713          	addi	a4,a4,1204 # 80007d7c <_ctype_+0x29c>
800028d0:	00f707b3          	add	a5,a4,a5
800028d4:	0007c703          	lbu	a4,0(a5)
800028d8:	fec42783          	lw	a5,-20(s0)
800028dc:	ff078793          	addi	a5,a5,-16
800028e0:	008787b3          	add	a5,a5,s0
800028e4:	fee78823          	sb	a4,-16(a5)
800028e8:	fdc42783          	lw	a5,-36(s0)
800028ec:	4047d793          	srai	a5,a5,0x4
800028f0:	fcf42e23          	sw	a5,-36(s0)
800028f4:	fec42783          	lw	a5,-20(s0)
800028f8:	00178793          	addi	a5,a5,1
800028fc:	fef42623          	sw	a5,-20(s0)
80002900:	fec42703          	lw	a4,-20(s0)
80002904:	00800793          	li	a5,8
80002908:	fae7dce3          	bge	a5,a4,800028c0 <_prtX16+0x24>
8000290c:	00800793          	li	a5,8
80002910:	fef42623          	sw	a5,-20(s0)
80002914:	0100006f          	j	80002924 <_prtX16+0x88>
80002918:	fec42783          	lw	a5,-20(s0)
8000291c:	fff78793          	addi	a5,a5,-1
80002920:	fef42623          	sw	a5,-20(s0)
80002924:	fec42783          	lw	a5,-20(s0)
80002928:	ff078793          	addi	a5,a5,-16
8000292c:	008787b3          	add	a5,a5,s0
80002930:	ff07c703          	lbu	a4,-16(a5)
80002934:	03000793          	li	a5,48
80002938:	fef700e3          	beq	a4,a5,80002918 <_prtX16+0x7c>
8000293c:	fec42783          	lw	a5,-20(s0)
80002940:	02079e63          	bnez	a5,8000297c <_prtX16+0xe0>
80002944:	fec42783          	lw	a5,-20(s0)
80002948:	00178793          	addi	a5,a5,1
8000294c:	fef42623          	sw	a5,-20(s0)
80002950:	02c0006f          	j	8000297c <_prtX16+0xe0>
80002954:	fec42703          	lw	a4,-20(s0)
80002958:	fff70793          	addi	a5,a4,-1
8000295c:	fef42623          	sw	a5,-20(s0)
80002960:	fd842783          	lw	a5,-40(s0)
80002964:	00178693          	addi	a3,a5,1
80002968:	fcd42c23          	sw	a3,-40(s0)
8000296c:	ff070713          	addi	a4,a4,-16
80002970:	00870733          	add	a4,a4,s0
80002974:	ff074703          	lbu	a4,-16(a4)
80002978:	00e78023          	sb	a4,0(a5)
8000297c:	fec42783          	lw	a5,-20(s0)
80002980:	fc07dae3          	bgez	a5,80002954 <_prtX16+0xb8>
80002984:	00000013          	nop
80002988:	00000013          	nop
8000298c:	02c12403          	lw	s0,44(sp)
80002990:	03010113          	addi	sp,sp,48
80002994:	00008067          	ret

80002998 <_prtl2>:
80002998:	fb010113          	addi	sp,sp,-80
8000299c:	04812623          	sw	s0,76(sp)
800029a0:	05010413          	addi	s0,sp,80
800029a4:	faa42e23          	sw	a0,-68(s0)
800029a8:	fab42c23          	sw	a1,-72(s0)
800029ac:	fc040423          	sb	zero,-56(s0)
800029b0:	00100793          	li	a5,1
800029b4:	fef42623          	sw	a5,-20(s0)
800029b8:	0440006f          	j	800029fc <_prtl2+0x64>
800029bc:	fbc42783          	lw	a5,-68(s0)
800029c0:	0017f793          	andi	a5,a5,1
800029c4:	00079663          	bnez	a5,800029d0 <_prtl2+0x38>
800029c8:	03000793          	li	a5,48
800029cc:	0080006f          	j	800029d4 <_prtl2+0x3c>
800029d0:	03100793          	li	a5,49
800029d4:	fec42703          	lw	a4,-20(s0)
800029d8:	ff070713          	addi	a4,a4,-16
800029dc:	00870733          	add	a4,a4,s0
800029e0:	fcf70c23          	sb	a5,-40(a4)
800029e4:	fbc42783          	lw	a5,-68(s0)
800029e8:	4017d793          	srai	a5,a5,0x1
800029ec:	faf42e23          	sw	a5,-68(s0)
800029f0:	fec42783          	lw	a5,-20(s0)
800029f4:	00178793          	addi	a5,a5,1
800029f8:	fef42623          	sw	a5,-20(s0)
800029fc:	fec42703          	lw	a4,-20(s0)
80002a00:	02000793          	li	a5,32
80002a04:	fae7dce3          	bge	a5,a4,800029bc <_prtl2+0x24>
80002a08:	02000793          	li	a5,32
80002a0c:	fef42623          	sw	a5,-20(s0)
80002a10:	0100006f          	j	80002a20 <_prtl2+0x88>
80002a14:	fec42783          	lw	a5,-20(s0)
80002a18:	fff78793          	addi	a5,a5,-1
80002a1c:	fef42623          	sw	a5,-20(s0)
80002a20:	fec42783          	lw	a5,-20(s0)
80002a24:	ff078793          	addi	a5,a5,-16
80002a28:	008787b3          	add	a5,a5,s0
80002a2c:	fd87c703          	lbu	a4,-40(a5)
80002a30:	03000793          	li	a5,48
80002a34:	fef700e3          	beq	a4,a5,80002a14 <_prtl2+0x7c>
80002a38:	fec42783          	lw	a5,-20(s0)
80002a3c:	02079e63          	bnez	a5,80002a78 <_prtl2+0xe0>
80002a40:	fec42783          	lw	a5,-20(s0)
80002a44:	00178793          	addi	a5,a5,1
80002a48:	fef42623          	sw	a5,-20(s0)
80002a4c:	02c0006f          	j	80002a78 <_prtl2+0xe0>
80002a50:	fec42703          	lw	a4,-20(s0)
80002a54:	fff70793          	addi	a5,a4,-1
80002a58:	fef42623          	sw	a5,-20(s0)
80002a5c:	fb842783          	lw	a5,-72(s0)
80002a60:	00178693          	addi	a3,a5,1
80002a64:	fad42c23          	sw	a3,-72(s0)
80002a68:	ff070713          	addi	a4,a4,-16
80002a6c:	00870733          	add	a4,a4,s0
80002a70:	fd874703          	lbu	a4,-40(a4)
80002a74:	00e78023          	sb	a4,0(a5)
80002a78:	fec42783          	lw	a5,-20(s0)
80002a7c:	fc07dae3          	bgez	a5,80002a50 <_prtl2+0xb8>
80002a80:	00000013          	nop
80002a84:	00000013          	nop
80002a88:	04c12403          	lw	s0,76(sp)
80002a8c:	05010113          	addi	sp,sp,80
80002a90:	00008067          	ret

80002a94 <fprintf>:
80002a94:	fb010113          	addi	sp,sp,-80
80002a98:	02812623          	sw	s0,44(sp)
80002a9c:	03010413          	addi	s0,sp,48
80002aa0:	fca42e23          	sw	a0,-36(s0)
80002aa4:	fcb42c23          	sw	a1,-40(s0)
80002aa8:	00c42423          	sw	a2,8(s0)
80002aac:	00d42623          	sw	a3,12(s0)
80002ab0:	00e42823          	sw	a4,16(s0)
80002ab4:	00f42a23          	sw	a5,20(s0)
80002ab8:	01042c23          	sw	a6,24(s0)
80002abc:	01142e23          	sw	a7,28(s0)
80002ac0:	02040793          	addi	a5,s0,32
80002ac4:	fcf42a23          	sw	a5,-44(s0)
80002ac8:	fd442783          	lw	a5,-44(s0)
80002acc:	fe878793          	addi	a5,a5,-24
80002ad0:	fef42623          	sw	a5,-20(s0)
80002ad4:	00000793          	li	a5,0
80002ad8:	00078513          	mv	a0,a5
80002adc:	02c12403          	lw	s0,44(sp)
80002ae0:	05010113          	addi	sp,sp,80
80002ae4:	00008067          	ret

80002ae8 <malloc>:
80002ae8:	fd010113          	addi	sp,sp,-48
80002aec:	02112623          	sw	ra,44(sp)
80002af0:	02812423          	sw	s0,40(sp)
80002af4:	03010413          	addi	s0,sp,48
80002af8:	fca42e23          	sw	a0,-36(s0)
80002afc:	fdc42783          	lw	a5,-36(s0)
80002b00:	00079663          	bnez	a5,80002b0c <malloc+0x24>
80002b04:	00000793          	li	a5,0
80002b08:	0500006f          	j	80002b58 <malloc+0x70>
80002b0c:	fdc42783          	lw	a5,-36(s0)
80002b10:	00878793          	addi	a5,a5,8
80002b14:	fcf42e23          	sw	a5,-36(s0)
80002b18:	fdc42503          	lw	a0,-36(s0)
80002b1c:	658030ef          	jal	80006174 <getmem>
80002b20:	fea42623          	sw	a0,-20(s0)
80002b24:	fec42703          	lw	a4,-20(s0)
80002b28:	fff00793          	li	a5,-1
80002b2c:	00f71663          	bne	a4,a5,80002b38 <malloc+0x50>
80002b30:	00000793          	li	a5,0
80002b34:	0240006f          	j	80002b58 <malloc+0x70>
80002b38:	fec42783          	lw	a5,-20(s0)
80002b3c:	fec42703          	lw	a4,-20(s0)
80002b40:	00e7a023          	sw	a4,0(a5)
80002b44:	fec42783          	lw	a5,-20(s0)
80002b48:	fdc42703          	lw	a4,-36(s0)
80002b4c:	00e7a223          	sw	a4,4(a5)
80002b50:	fec42783          	lw	a5,-20(s0)
80002b54:	00878793          	addi	a5,a5,8
80002b58:	00078513          	mv	a0,a5
80002b5c:	02c12083          	lw	ra,44(sp)
80002b60:	02812403          	lw	s0,40(sp)
80002b64:	03010113          	addi	sp,sp,48
80002b68:	00008067          	ret

80002b6c <free>:
80002b6c:	fd010113          	addi	sp,sp,-48
80002b70:	02112623          	sw	ra,44(sp)
80002b74:	02812423          	sw	s0,40(sp)
80002b78:	03010413          	addi	s0,sp,48
80002b7c:	fca42e23          	sw	a0,-36(s0)
80002b80:	fdc42783          	lw	a5,-36(s0)
80002b84:	fef42623          	sw	a5,-20(s0)
80002b88:	fec42783          	lw	a5,-20(s0)
80002b8c:	ff878793          	addi	a5,a5,-8
80002b90:	fef42623          	sw	a5,-20(s0)
80002b94:	fec42783          	lw	a5,-20(s0)
80002b98:	0007a783          	lw	a5,0(a5)
80002b9c:	fec42703          	lw	a4,-20(s0)
80002ba0:	00f71e63          	bne	a4,a5,80002bbc <free+0x50>
80002ba4:	fec42783          	lw	a5,-20(s0)
80002ba8:	0047a783          	lw	a5,4(a5)
80002bac:	00078593          	mv	a1,a5
80002bb0:	fec42503          	lw	a0,-20(s0)
80002bb4:	3b4030ef          	jal	80005f68 <freemem>
80002bb8:	0080006f          	j	80002bc0 <free+0x54>
80002bbc:	00000013          	nop
80002bc0:	02c12083          	lw	ra,44(sp)
80002bc4:	02812403          	lw	s0,40(sp)
80002bc8:	03010113          	addi	sp,sp,48
80002bcc:	00008067          	ret

80002bd0 <realloc>:
80002bd0:	fd010113          	addi	sp,sp,-48
80002bd4:	02112623          	sw	ra,44(sp)
80002bd8:	02812423          	sw	s0,40(sp)
80002bdc:	03010413          	addi	s0,sp,48
80002be0:	fca42e23          	sw	a0,-36(s0)
80002be4:	fcb42c23          	sw	a1,-40(s0)
80002be8:	fe042623          	sw	zero,-20(s0)
80002bec:	fd842783          	lw	a5,-40(s0)
80002bf0:	04078663          	beqz	a5,80002c3c <realloc+0x6c>
80002bf4:	fdc42783          	lw	a5,-36(s0)
80002bf8:	00079a63          	bnez	a5,80002c0c <realloc+0x3c>
80002bfc:	fd842503          	lw	a0,-40(s0)
80002c00:	ee9ff0ef          	jal	80002ae8 <malloc>
80002c04:	00050793          	mv	a5,a0
80002c08:	0380006f          	j	80002c40 <realloc+0x70>
80002c0c:	fd842503          	lw	a0,-40(s0)
80002c10:	ed9ff0ef          	jal	80002ae8 <malloc>
80002c14:	fea42623          	sw	a0,-20(s0)
80002c18:	fec42783          	lw	a5,-20(s0)
80002c1c:	02078063          	beqz	a5,80002c3c <realloc+0x6c>
80002c20:	fd842783          	lw	a5,-40(s0)
80002c24:	00078613          	mv	a2,a5
80002c28:	fdc42583          	lw	a1,-36(s0)
80002c2c:	fec42503          	lw	a0,-20(s0)
80002c30:	675000ef          	jal	80003aa4 <memcpy>
80002c34:	fdc42503          	lw	a0,-36(s0)
80002c38:	f35ff0ef          	jal	80002b6c <free>
80002c3c:	fec42783          	lw	a5,-20(s0)
80002c40:	00078513          	mv	a0,a5
80002c44:	02c12083          	lw	ra,44(sp)
80002c48:	02812403          	lw	s0,40(sp)
80002c4c:	03010113          	addi	sp,sp,48
80002c50:	00008067          	ret

80002c54 <calloc>:
80002c54:	fd010113          	addi	sp,sp,-48
80002c58:	02112623          	sw	ra,44(sp)
80002c5c:	02812423          	sw	s0,40(sp)
80002c60:	03010413          	addi	s0,sp,48
80002c64:	fca42e23          	sw	a0,-36(s0)
80002c68:	fcb42c23          	sw	a1,-40(s0)
80002c6c:	fdc42703          	lw	a4,-36(s0)
80002c70:	fd842783          	lw	a5,-40(s0)
80002c74:	02f707b3          	mul	a5,a4,a5
80002c78:	fef42623          	sw	a5,-20(s0)
80002c7c:	fec42503          	lw	a0,-20(s0)
80002c80:	e69ff0ef          	jal	80002ae8 <malloc>
80002c84:	fea42423          	sw	a0,-24(s0)
80002c88:	fe842783          	lw	a5,-24(s0)
80002c8c:	00079663          	bnez	a5,80002c98 <calloc+0x44>
80002c90:	00000793          	li	a5,0
80002c94:	0180006f          	j	80002cac <calloc+0x58>
80002c98:	fec42603          	lw	a2,-20(s0)
80002c9c:	00000593          	li	a1,0
80002ca0:	fe842503          	lw	a0,-24(s0)
80002ca4:	599000ef          	jal	80003a3c <memset>
80002ca8:	fe842783          	lw	a5,-24(s0)
80002cac:	00078513          	mv	a0,a5
80002cb0:	02c12083          	lw	ra,44(sp)
80002cb4:	02812403          	lw	s0,40(sp)
80002cb8:	03010113          	addi	sp,sp,48
80002cbc:	00008067          	ret

80002cc0 <printf>:
80002cc0:	fb010113          	addi	sp,sp,-80
80002cc4:	02812623          	sw	s0,44(sp)
80002cc8:	03010413          	addi	s0,sp,48
80002ccc:	fca42e23          	sw	a0,-36(s0)
80002cd0:	00b42223          	sw	a1,4(s0)
80002cd4:	00c42423          	sw	a2,8(s0)
80002cd8:	00d42623          	sw	a3,12(s0)
80002cdc:	00e42823          	sw	a4,16(s0)
80002ce0:	00f42a23          	sw	a5,20(s0)
80002ce4:	01042c23          	sw	a6,24(s0)
80002ce8:	01142e23          	sw	a7,28(s0)
80002cec:	02040793          	addi	a5,s0,32
80002cf0:	fcf42c23          	sw	a5,-40(s0)
80002cf4:	fd842783          	lw	a5,-40(s0)
80002cf8:	fe478793          	addi	a5,a5,-28
80002cfc:	fef42623          	sw	a5,-20(s0)
80002d00:	00000793          	li	a5,0
80002d04:	00078513          	mv	a0,a5
80002d08:	02c12403          	lw	s0,44(sp)
80002d0c:	05010113          	addi	sp,sp,80
80002d10:	00008067          	ret

80002d14 <qsort>:
80002d14:	fe010113          	addi	sp,sp,-32
80002d18:	00112e23          	sw	ra,28(sp)
80002d1c:	00812c23          	sw	s0,24(sp)
80002d20:	02010413          	addi	s0,sp,32
80002d24:	fea42623          	sw	a0,-20(s0)
80002d28:	feb42423          	sw	a1,-24(s0)
80002d2c:	fec42223          	sw	a2,-28(s0)
80002d30:	fed42023          	sw	a3,-32(s0)
80002d34:	00005797          	auipc	a5,0x5
80002d38:	39478793          	addi	a5,a5,916 # 800080c8 <qscmp>
80002d3c:	fe042703          	lw	a4,-32(s0)
80002d40:	00e7a023          	sw	a4,0(a5)
80002d44:	00005797          	auipc	a5,0x5
80002d48:	38878793          	addi	a5,a5,904 # 800080cc <qses>
80002d4c:	fe442703          	lw	a4,-28(s0)
80002d50:	00e7a023          	sw	a4,0(a5)
80002d54:	fe442703          	lw	a4,-28(s0)
80002d58:	fe842783          	lw	a5,-24(s0)
80002d5c:	02f707b3          	mul	a5,a4,a5
80002d60:	fec42703          	lw	a4,-20(s0)
80002d64:	00f707b3          	add	a5,a4,a5
80002d68:	00078593          	mv	a1,a5
80002d6c:	fec42503          	lw	a0,-20(s0)
80002d70:	018000ef          	jal	80002d88 <qs1>
80002d74:	00000013          	nop
80002d78:	01c12083          	lw	ra,28(sp)
80002d7c:	01812403          	lw	s0,24(sp)
80002d80:	02010113          	addi	sp,sp,32
80002d84:	00008067          	ret

80002d88 <qs1>:
80002d88:	fc010113          	addi	sp,sp,-64
80002d8c:	02112e23          	sw	ra,60(sp)
80002d90:	02812c23          	sw	s0,56(sp)
80002d94:	02912a23          	sw	s1,52(sp)
80002d98:	03212823          	sw	s2,48(sp)
80002d9c:	03312623          	sw	s3,44(sp)
80002da0:	04010413          	addi	s0,sp,64
80002da4:	fca42623          	sw	a0,-52(s0)
80002da8:	fcb42423          	sw	a1,-56(s0)
80002dac:	00005797          	auipc	a5,0x5
80002db0:	32078793          	addi	a5,a5,800 # 800080cc <qses>
80002db4:	0007a983          	lw	s3,0(a5)
80002db8:	fc842703          	lw	a4,-56(s0)
80002dbc:	fcc42783          	lw	a5,-52(s0)
80002dc0:	40f707b3          	sub	a5,a4,a5
80002dc4:	fcf42a23          	sw	a5,-44(s0)
80002dc8:	00098713          	mv	a4,s3
80002dcc:	fd442783          	lw	a5,-44(s0)
80002dd0:	22f77263          	bgeu	a4,a5,80002ff4 <qs1+0x26c>
80002dd4:	00199793          	slli	a5,s3,0x1
80002dd8:	00078713          	mv	a4,a5
80002ddc:	fd442783          	lw	a5,-44(s0)
80002de0:	02e7d7b3          	divu	a5,a5,a4
80002de4:	00098713          	mv	a4,s3
80002de8:	02e787b3          	mul	a5,a5,a4
80002dec:	fcf42a23          	sw	a5,-44(s0)
80002df0:	fcc42703          	lw	a4,-52(s0)
80002df4:	fd442783          	lw	a5,-44(s0)
80002df8:	00f707b3          	add	a5,a4,a5
80002dfc:	fcf42e23          	sw	a5,-36(s0)
80002e00:	fdc42783          	lw	a5,-36(s0)
80002e04:	fcf42c23          	sw	a5,-40(s0)
80002e08:	fcc42483          	lw	s1,-52(s0)
80002e0c:	00098793          	mv	a5,s3
80002e10:	40f007b3          	neg	a5,a5
80002e14:	fc842703          	lw	a4,-56(s0)
80002e18:	00f70933          	add	s2,a4,a5
80002e1c:	fdc42783          	lw	a5,-36(s0)
80002e20:	06f4f063          	bgeu	s1,a5,80002e80 <qs1+0xf8>
80002e24:	00005797          	auipc	a5,0x5
80002e28:	2a478793          	addi	a5,a5,676 # 800080c8 <qscmp>
80002e2c:	0007a783          	lw	a5,0(a5)
80002e30:	fdc42583          	lw	a1,-36(s0)
80002e34:	00048513          	mv	a0,s1
80002e38:	000780e7          	jalr	a5
80002e3c:	fca42823          	sw	a0,-48(s0)
80002e40:	fd042783          	lw	a5,-48(s0)
80002e44:	02079463          	bnez	a5,80002e6c <qs1+0xe4>
80002e48:	00098793          	mv	a5,s3
80002e4c:	40f007b3          	neg	a5,a5
80002e50:	fdc42703          	lw	a4,-36(s0)
80002e54:	00f707b3          	add	a5,a4,a5
80002e58:	fcf42e23          	sw	a5,-36(s0)
80002e5c:	fdc42583          	lw	a1,-36(s0)
80002e60:	00048513          	mv	a0,s1
80002e64:	1b0000ef          	jal	80003014 <qsexc>
80002e68:	1880006f          	j	80002ff0 <qs1+0x268>
80002e6c:	fd042783          	lw	a5,-48(s0)
80002e70:	0007d863          	bgez	a5,80002e80 <qs1+0xf8>
80002e74:	00098793          	mv	a5,s3
80002e78:	00f484b3          	add	s1,s1,a5
80002e7c:	1740006f          	j	80002ff0 <qs1+0x268>
80002e80:	00000013          	nop
80002e84:	fd842783          	lw	a5,-40(s0)
80002e88:	0d27f263          	bgeu	a5,s2,80002f4c <qs1+0x1c4>
80002e8c:	00005797          	auipc	a5,0x5
80002e90:	23c78793          	addi	a5,a5,572 # 800080c8 <qscmp>
80002e94:	0007a783          	lw	a5,0(a5)
80002e98:	00090593          	mv	a1,s2
80002e9c:	fd842503          	lw	a0,-40(s0)
80002ea0:	000780e7          	jalr	a5
80002ea4:	fca42823          	sw	a0,-48(s0)
80002ea8:	fd042783          	lw	a5,-48(s0)
80002eac:	02079263          	bnez	a5,80002ed0 <qs1+0x148>
80002eb0:	00098713          	mv	a4,s3
80002eb4:	fd842783          	lw	a5,-40(s0)
80002eb8:	00e787b3          	add	a5,a5,a4
80002ebc:	fcf42c23          	sw	a5,-40(s0)
80002ec0:	00090593          	mv	a1,s2
80002ec4:	fd842503          	lw	a0,-40(s0)
80002ec8:	14c000ef          	jal	80003014 <qsexc>
80002ecc:	fb9ff06f          	j	80002e84 <qs1+0xfc>
80002ed0:	fd042783          	lw	a5,-48(s0)
80002ed4:	06f05463          	blez	a5,80002f3c <qs1+0x1b4>
80002ed8:	fdc42783          	lw	a5,-36(s0)
80002edc:	02f49e63          	bne	s1,a5,80002f18 <qs1+0x190>
80002ee0:	00098713          	mv	a4,s3
80002ee4:	fd842783          	lw	a5,-40(s0)
80002ee8:	00e787b3          	add	a5,a5,a4
80002eec:	fcf42c23          	sw	a5,-40(s0)
80002ef0:	00090613          	mv	a2,s2
80002ef4:	fd842583          	lw	a1,-40(s0)
80002ef8:	00048513          	mv	a0,s1
80002efc:	1a4000ef          	jal	800030a0 <qstexc>
80002f00:	00098713          	mv	a4,s3
80002f04:	fdc42783          	lw	a5,-36(s0)
80002f08:	00e787b3          	add	a5,a5,a4
80002f0c:	fcf42e23          	sw	a5,-36(s0)
80002f10:	fdc42483          	lw	s1,-36(s0)
80002f14:	f71ff06f          	j	80002e84 <qs1+0xfc>
80002f18:	00090593          	mv	a1,s2
80002f1c:	00048513          	mv	a0,s1
80002f20:	0f4000ef          	jal	80003014 <qsexc>
80002f24:	00098793          	mv	a5,s3
80002f28:	40f007b3          	neg	a5,a5
80002f2c:	00f90933          	add	s2,s2,a5
80002f30:	00098793          	mv	a5,s3
80002f34:	00f484b3          	add	s1,s1,a5
80002f38:	0b80006f          	j	80002ff0 <qs1+0x268>
80002f3c:	00098793          	mv	a5,s3
80002f40:	40f007b3          	neg	a5,a5
80002f44:	00f90933          	add	s2,s2,a5
80002f48:	f3dff06f          	j	80002e84 <qs1+0xfc>
80002f4c:	fdc42783          	lw	a5,-36(s0)
80002f50:	06f49263          	bne	s1,a5,80002fb4 <qs1+0x22c>
80002f54:	fdc42703          	lw	a4,-36(s0)
80002f58:	fcc42783          	lw	a5,-52(s0)
80002f5c:	40f70733          	sub	a4,a4,a5
80002f60:	fc842683          	lw	a3,-56(s0)
80002f64:	fd842783          	lw	a5,-40(s0)
80002f68:	40f687b3          	sub	a5,a3,a5
80002f6c:	02f74463          	blt	a4,a5,80002f94 <qs1+0x20c>
80002f70:	00098713          	mv	a4,s3
80002f74:	fd842783          	lw	a5,-40(s0)
80002f78:	00e787b3          	add	a5,a5,a4
80002f7c:	fc842583          	lw	a1,-56(s0)
80002f80:	00078513          	mv	a0,a5
80002f84:	e05ff0ef          	jal	80002d88 <qs1>
80002f88:	fdc42783          	lw	a5,-36(s0)
80002f8c:	fcf42423          	sw	a5,-56(s0)
80002f90:	e29ff06f          	j	80002db8 <qs1+0x30>
80002f94:	fdc42583          	lw	a1,-36(s0)
80002f98:	fcc42503          	lw	a0,-52(s0)
80002f9c:	dedff0ef          	jal	80002d88 <qs1>
80002fa0:	00098713          	mv	a4,s3
80002fa4:	fd842783          	lw	a5,-40(s0)
80002fa8:	00e787b3          	add	a5,a5,a4
80002fac:	fcf42623          	sw	a5,-52(s0)
80002fb0:	e09ff06f          	j	80002db8 <qs1+0x30>
80002fb4:	00098793          	mv	a5,s3
80002fb8:	40f007b3          	neg	a5,a5
80002fbc:	fdc42703          	lw	a4,-36(s0)
80002fc0:	00f707b3          	add	a5,a4,a5
80002fc4:	fcf42e23          	sw	a5,-36(s0)
80002fc8:	00048613          	mv	a2,s1
80002fcc:	fdc42583          	lw	a1,-36(s0)
80002fd0:	00090513          	mv	a0,s2
80002fd4:	0cc000ef          	jal	800030a0 <qstexc>
80002fd8:	00098793          	mv	a5,s3
80002fdc:	40f007b3          	neg	a5,a5
80002fe0:	fd842703          	lw	a4,-40(s0)
80002fe4:	00f707b3          	add	a5,a4,a5
80002fe8:	fcf42c23          	sw	a5,-40(s0)
80002fec:	fd842903          	lw	s2,-40(s0)
80002ff0:	e2dff06f          	j	80002e1c <qs1+0x94>
80002ff4:	00000013          	nop
80002ff8:	03c12083          	lw	ra,60(sp)
80002ffc:	03812403          	lw	s0,56(sp)
80003000:	03412483          	lw	s1,52(sp)
80003004:	03012903          	lw	s2,48(sp)
80003008:	02c12983          	lw	s3,44(sp)
8000300c:	04010113          	addi	sp,sp,64
80003010:	00008067          	ret

80003014 <qsexc>:
80003014:	fd010113          	addi	sp,sp,-48
80003018:	02812623          	sw	s0,44(sp)
8000301c:	02912423          	sw	s1,40(sp)
80003020:	03212223          	sw	s2,36(sp)
80003024:	03312023          	sw	s3,32(sp)
80003028:	03010413          	addi	s0,sp,48
8000302c:	fca42e23          	sw	a0,-36(s0)
80003030:	fcb42c23          	sw	a1,-40(s0)
80003034:	00005797          	auipc	a5,0x5
80003038:	09878793          	addi	a5,a5,152 # 800080cc <qses>
8000303c:	0007a783          	lw	a5,0(a5)
80003040:	fef42623          	sw	a5,-20(s0)
80003044:	fdc42903          	lw	s2,-36(s0)
80003048:	fd842483          	lw	s1,-40(s0)
8000304c:	00094983          	lbu	s3,0(s2)
80003050:	00090793          	mv	a5,s2
80003054:	00178913          	addi	s2,a5,1
80003058:	0004c703          	lbu	a4,0(s1)
8000305c:	00e78023          	sb	a4,0(a5)
80003060:	00048793          	mv	a5,s1
80003064:	00178493          	addi	s1,a5,1
80003068:	01378023          	sb	s3,0(a5)
8000306c:	fec42783          	lw	a5,-20(s0)
80003070:	fff78793          	addi	a5,a5,-1
80003074:	fef42623          	sw	a5,-20(s0)
80003078:	fec42783          	lw	a5,-20(s0)
8000307c:	fc0798e3          	bnez	a5,8000304c <qsexc+0x38>
80003080:	00000013          	nop
80003084:	00000013          	nop
80003088:	02c12403          	lw	s0,44(sp)
8000308c:	02812483          	lw	s1,40(sp)
80003090:	02412903          	lw	s2,36(sp)
80003094:	02012983          	lw	s3,32(sp)
80003098:	03010113          	addi	sp,sp,48
8000309c:	00008067          	ret

800030a0 <qstexc>:
800030a0:	fd010113          	addi	sp,sp,-48
800030a4:	02812623          	sw	s0,44(sp)
800030a8:	02912423          	sw	s1,40(sp)
800030ac:	03212223          	sw	s2,36(sp)
800030b0:	03312023          	sw	s3,32(sp)
800030b4:	03010413          	addi	s0,sp,48
800030b8:	fca42e23          	sw	a0,-36(s0)
800030bc:	fcb42c23          	sw	a1,-40(s0)
800030c0:	fcc42a23          	sw	a2,-44(s0)
800030c4:	00005797          	auipc	a5,0x5
800030c8:	00878793          	addi	a5,a5,8 # 800080cc <qses>
800030cc:	0007a783          	lw	a5,0(a5)
800030d0:	fef42623          	sw	a5,-20(s0)
800030d4:	fdc42983          	lw	s3,-36(s0)
800030d8:	fd842483          	lw	s1,-40(s0)
800030dc:	fd442903          	lw	s2,-44(s0)
800030e0:	0009c783          	lbu	a5,0(s3)
800030e4:	fef42423          	sw	a5,-24(s0)
800030e8:	00098793          	mv	a5,s3
800030ec:	00178993          	addi	s3,a5,1
800030f0:	00094703          	lbu	a4,0(s2)
800030f4:	00e78023          	sb	a4,0(a5)
800030f8:	00090793          	mv	a5,s2
800030fc:	00178913          	addi	s2,a5,1
80003100:	0004c703          	lbu	a4,0(s1)
80003104:	00e78023          	sb	a4,0(a5)
80003108:	00048793          	mv	a5,s1
8000310c:	00178493          	addi	s1,a5,1
80003110:	fe842703          	lw	a4,-24(s0)
80003114:	0ff77713          	zext.b	a4,a4
80003118:	00e78023          	sb	a4,0(a5)
8000311c:	fec42783          	lw	a5,-20(s0)
80003120:	fff78793          	addi	a5,a5,-1
80003124:	fef42623          	sw	a5,-20(s0)
80003128:	fec42783          	lw	a5,-20(s0)
8000312c:	fa079ae3          	bnez	a5,800030e0 <qstexc+0x40>
80003130:	00000013          	nop
80003134:	00000013          	nop
80003138:	02c12403          	lw	s0,44(sp)
8000313c:	02812483          	lw	s1,40(sp)
80003140:	02412903          	lw	s2,36(sp)
80003144:	02012983          	lw	s3,32(sp)
80003148:	03010113          	addi	sp,sp,48
8000314c:	00008067          	ret

80003150 <rand>:
80003150:	ff010113          	addi	sp,sp,-16
80003154:	00112623          	sw	ra,12(sp)
80003158:	00812423          	sw	s0,8(sp)
8000315c:	01010413          	addi	s0,sp,16
80003160:	00005517          	auipc	a0,0x5
80003164:	f5850513          	addi	a0,a0,-168 # 800080b8 <rand_seed>
80003168:	01c000ef          	jal	80003184 <rand_r>
8000316c:	00050793          	mv	a5,a0
80003170:	00078513          	mv	a0,a5
80003174:	00c12083          	lw	ra,12(sp)
80003178:	00812403          	lw	s0,8(sp)
8000317c:	01010113          	addi	sp,sp,16
80003180:	00008067          	ret

80003184 <rand_r>:
80003184:	fe010113          	addi	sp,sp,-32
80003188:	00812e23          	sw	s0,28(sp)
8000318c:	02010413          	addi	s0,sp,32
80003190:	fea42623          	sw	a0,-20(s0)
80003194:	fec42783          	lw	a5,-20(s0)
80003198:	0007a703          	lw	a4,0(a5)
8000319c:	000047b7          	lui	a5,0x4
800031a0:	1a778793          	addi	a5,a5,423 # 41a7 <__stack_size+0x31a7>
800031a4:	02f70733          	mul	a4,a4,a5
800031a8:	800007b7          	lui	a5,0x80000
800031ac:	ffe78793          	addi	a5,a5,-2 # 7ffffffe <__stack_size+0x7fffeffe>
800031b0:	02f77733          	remu	a4,a4,a5
800031b4:	fec42783          	lw	a5,-20(s0)
800031b8:	00e7a023          	sw	a4,0(a5)
800031bc:	fec42783          	lw	a5,-20(s0)
800031c0:	0007a783          	lw	a5,0(a5)
800031c4:	00078513          	mv	a0,a5
800031c8:	01c12403          	lw	s0,28(sp)
800031cc:	02010113          	addi	sp,sp,32
800031d0:	00008067          	ret

800031d4 <srand>:
800031d4:	fe010113          	addi	sp,sp,-32
800031d8:	00812e23          	sw	s0,28(sp)
800031dc:	02010413          	addi	s0,sp,32
800031e0:	fea42623          	sw	a0,-20(s0)
800031e4:	00005797          	auipc	a5,0x5
800031e8:	ed478793          	addi	a5,a5,-300 # 800080b8 <rand_seed>
800031ec:	fec42703          	lw	a4,-20(s0)
800031f0:	00e7a023          	sw	a4,0(a5)
800031f4:	00000013          	nop
800031f8:	01c12403          	lw	s0,28(sp)
800031fc:	02010113          	addi	sp,sp,32
80003200:	00008067          	ret

80003204 <sprintf>:
80003204:	fb010113          	addi	sp,sp,-80
80003208:	02112623          	sw	ra,44(sp)
8000320c:	02812423          	sw	s0,40(sp)
80003210:	03010413          	addi	s0,sp,48
80003214:	fca42e23          	sw	a0,-36(s0)
80003218:	fcb42c23          	sw	a1,-40(s0)
8000321c:	00c42423          	sw	a2,8(s0)
80003220:	00d42623          	sw	a3,12(s0)
80003224:	00e42823          	sw	a4,16(s0)
80003228:	00f42a23          	sw	a5,20(s0)
8000322c:	01042c23          	sw	a6,24(s0)
80003230:	01142e23          	sw	a7,28(s0)
80003234:	fdc42783          	lw	a5,-36(s0)
80003238:	fef42423          	sw	a5,-24(s0)
8000323c:	02040793          	addi	a5,s0,32
80003240:	fcf42a23          	sw	a5,-44(s0)
80003244:	fd442783          	lw	a5,-44(s0)
80003248:	fe878793          	addi	a5,a5,-24
8000324c:	fef42623          	sw	a5,-20(s0)
80003250:	fec42783          	lw	a5,-20(s0)
80003254:	fe840713          	addi	a4,s0,-24
80003258:	00070693          	mv	a3,a4
8000325c:	00000617          	auipc	a2,0x0
80003260:	03c60613          	addi	a2,a2,60 # 80003298 <sprntf>
80003264:	00078593          	mv	a1,a5
80003268:	fd842503          	lw	a0,-40(s0)
8000326c:	cedfe0ef          	jal	80001f58 <_fdoprnt>
80003270:	fe842783          	lw	a5,-24(s0)
80003274:	00178713          	addi	a4,a5,1
80003278:	fee42423          	sw	a4,-24(s0)
8000327c:	00078023          	sb	zero,0(a5)
80003280:	fdc42783          	lw	a5,-36(s0)
80003284:	00078513          	mv	a0,a5
80003288:	02c12083          	lw	ra,44(sp)
8000328c:	02812403          	lw	s0,40(sp)
80003290:	05010113          	addi	sp,sp,80
80003294:	00008067          	ret

80003298 <sprntf>:
80003298:	fd010113          	addi	sp,sp,-48
8000329c:	02812623          	sw	s0,44(sp)
800032a0:	03010413          	addi	s0,sp,48
800032a4:	fca42e23          	sw	a0,-36(s0)
800032a8:	fcb42c23          	sw	a1,-40(s0)
800032ac:	fdc42783          	lw	a5,-36(s0)
800032b0:	fef42623          	sw	a5,-20(s0)
800032b4:	fd842783          	lw	a5,-40(s0)
800032b8:	fef405a3          	sb	a5,-21(s0)
800032bc:	fec42783          	lw	a5,-20(s0)
800032c0:	0007a783          	lw	a5,0(a5)
800032c4:	00178693          	addi	a3,a5,1
800032c8:	fec42703          	lw	a4,-20(s0)
800032cc:	00d72023          	sw	a3,0(a4)
800032d0:	feb44703          	lbu	a4,-21(s0)
800032d4:	00e78023          	sb	a4,0(a5)
800032d8:	0007c783          	lbu	a5,0(a5)
800032dc:	00078513          	mv	a0,a5
800032e0:	02c12403          	lw	s0,44(sp)
800032e4:	03010113          	addi	sp,sp,48
800032e8:	00008067          	ret

800032ec <labs>:
800032ec:	fe010113          	addi	sp,sp,-32
800032f0:	00812e23          	sw	s0,28(sp)
800032f4:	02010413          	addi	s0,sp,32
800032f8:	fea42623          	sw	a0,-20(s0)
800032fc:	fec42783          	lw	a5,-20(s0)
80003300:	0007d863          	bgez	a5,80003310 <labs+0x24>
80003304:	fec42783          	lw	a5,-20(s0)
80003308:	40f007b3          	neg	a5,a5
8000330c:	fef42623          	sw	a5,-20(s0)
80003310:	fec42783          	lw	a5,-20(s0)
80003314:	00078513          	mv	a0,a5
80003318:	01c12403          	lw	s0,28(sp)
8000331c:	02010113          	addi	sp,sp,32
80003320:	00008067          	ret

80003324 <abs>:
80003324:	fe010113          	addi	sp,sp,-32
80003328:	00812e23          	sw	s0,28(sp)
8000332c:	02010413          	addi	s0,sp,32
80003330:	fea42623          	sw	a0,-20(s0)
80003334:	fec42783          	lw	a5,-20(s0)
80003338:	41f7d713          	srai	a4,a5,0x1f
8000333c:	fec42783          	lw	a5,-20(s0)
80003340:	00f747b3          	xor	a5,a4,a5
80003344:	40e787b3          	sub	a5,a5,a4
80003348:	00078513          	mv	a0,a5
8000334c:	01c12403          	lw	s0,28(sp)
80003350:	02010113          	addi	sp,sp,32
80003354:	00008067          	ret

80003358 <strndup>:
80003358:	fd010113          	addi	sp,sp,-48
8000335c:	02112623          	sw	ra,44(sp)
80003360:	02812423          	sw	s0,40(sp)
80003364:	03010413          	addi	s0,sp,48
80003368:	fca42e23          	sw	a0,-36(s0)
8000336c:	fcb42c23          	sw	a1,-40(s0)
80003370:	fd842583          	lw	a1,-40(s0)
80003374:	fdc42503          	lw	a0,-36(s0)
80003378:	789000ef          	jal	80004300 <strnlen>
8000337c:	fea42623          	sw	a0,-20(s0)
80003380:	fec42783          	lw	a5,-20(s0)
80003384:	00178793          	addi	a5,a5,1
80003388:	00078513          	mv	a0,a5
8000338c:	f5cff0ef          	jal	80002ae8 <malloc>
80003390:	fea42423          	sw	a0,-24(s0)
80003394:	fe842783          	lw	a5,-24(s0)
80003398:	00079663          	bnez	a5,800033a4 <strndup+0x4c>
8000339c:	00000793          	li	a5,0
800033a0:	0280006f          	j	800033c8 <strndup+0x70>
800033a4:	fec42603          	lw	a2,-20(s0)
800033a8:	fdc42583          	lw	a1,-36(s0)
800033ac:	fe842503          	lw	a0,-24(s0)
800033b0:	2f9000ef          	jal	80003ea8 <strncpy>
800033b4:	fec42783          	lw	a5,-20(s0)
800033b8:	fe842703          	lw	a4,-24(s0)
800033bc:	00f707b3          	add	a5,a4,a5
800033c0:	00078023          	sb	zero,0(a5)
800033c4:	fe842783          	lw	a5,-24(s0)
800033c8:	00078513          	mv	a0,a5
800033cc:	02c12083          	lw	ra,44(sp)
800033d0:	02812403          	lw	s0,40(sp)
800033d4:	03010113          	addi	sp,sp,48
800033d8:	00008067          	ret

800033dc <strdup>:
800033dc:	fe010113          	addi	sp,sp,-32
800033e0:	00112e23          	sw	ra,28(sp)
800033e4:	00812c23          	sw	s0,24(sp)
800033e8:	02010413          	addi	s0,sp,32
800033ec:	fea42623          	sw	a0,-20(s0)
800033f0:	fec42503          	lw	a0,-20(s0)
800033f4:	049000ef          	jal	80003c3c <strlen>
800033f8:	00050793          	mv	a5,a0
800033fc:	00078593          	mv	a1,a5
80003400:	fec42503          	lw	a0,-20(s0)
80003404:	f55ff0ef          	jal	80003358 <strndup>
80003408:	00050793          	mv	a5,a0
8000340c:	00078513          	mv	a0,a5
80003410:	01c12083          	lw	ra,28(sp)
80003414:	01812403          	lw	s0,24(sp)
80003418:	02010113          	addi	sp,sp,32
8000341c:	00008067          	ret

80003420 <atol>:
80003420:	fd010113          	addi	sp,sp,-48
80003424:	02812623          	sw	s0,44(sp)
80003428:	03010413          	addi	s0,sp,48
8000342c:	fca42e23          	sw	a0,-36(s0)
80003430:	fe042623          	sw	zero,-20(s0)
80003434:	fe042423          	sw	zero,-24(s0)
80003438:	fdc42783          	lw	a5,-36(s0)
8000343c:	0007c783          	lbu	a5,0(a5)
80003440:	02d00713          	li	a4,45
80003444:	02e78863          	beq	a5,a4,80003474 <atol+0x54>
80003448:	02d00713          	li	a4,45
8000344c:	04f74c63          	blt	a4,a5,800034a4 <atol+0x84>
80003450:	02b00713          	li	a4,43
80003454:	02e78663          	beq	a5,a4,80003480 <atol+0x60>
80003458:	02b00713          	li	a4,43
8000345c:	04f74463          	blt	a4,a5,800034a4 <atol+0x84>
80003460:	00900713          	li	a4,9
80003464:	02e78663          	beq	a5,a4,80003490 <atol+0x70>
80003468:	02000713          	li	a4,32
8000346c:	02e79c63          	bne	a5,a4,800034a4 <atol+0x84>
80003470:	0200006f          	j	80003490 <atol+0x70>
80003474:	fe842783          	lw	a5,-24(s0)
80003478:	00178793          	addi	a5,a5,1
8000347c:	fef42423          	sw	a5,-24(s0)
80003480:	fdc42783          	lw	a5,-36(s0)
80003484:	00178793          	addi	a5,a5,1
80003488:	fcf42e23          	sw	a5,-36(s0)
8000348c:	0180006f          	j	800034a4 <atol+0x84>
80003490:	00000013          	nop
80003494:	fdc42783          	lw	a5,-36(s0)
80003498:	00178793          	addi	a5,a5,1
8000349c:	fcf42e23          	sw	a5,-36(s0)
800034a0:	f99ff06f          	j	80003438 <atol+0x18>
800034a4:	00000013          	nop
800034a8:	0380006f          	j	800034e0 <atol+0xc0>
800034ac:	fec42703          	lw	a4,-20(s0)
800034b0:	00070793          	mv	a5,a4
800034b4:	00279793          	slli	a5,a5,0x2
800034b8:	00e787b3          	add	a5,a5,a4
800034bc:	00179793          	slli	a5,a5,0x1
800034c0:	00078693          	mv	a3,a5
800034c4:	fdc42783          	lw	a5,-36(s0)
800034c8:	00178713          	addi	a4,a5,1
800034cc:	fce42e23          	sw	a4,-36(s0)
800034d0:	0007c783          	lbu	a5,0(a5)
800034d4:	00f687b3          	add	a5,a3,a5
800034d8:	fd078793          	addi	a5,a5,-48
800034dc:	fef42623          	sw	a5,-20(s0)
800034e0:	fdc42783          	lw	a5,-36(s0)
800034e4:	0007c703          	lbu	a4,0(a5)
800034e8:	02f00793          	li	a5,47
800034ec:	00e7fa63          	bgeu	a5,a4,80003500 <atol+0xe0>
800034f0:	fdc42783          	lw	a5,-36(s0)
800034f4:	0007c703          	lbu	a4,0(a5)
800034f8:	03900793          	li	a5,57
800034fc:	fae7f8e3          	bgeu	a5,a4,800034ac <atol+0x8c>
80003500:	fe842783          	lw	a5,-24(s0)
80003504:	00078863          	beqz	a5,80003514 <atol+0xf4>
80003508:	fec42783          	lw	a5,-20(s0)
8000350c:	40f007b3          	neg	a5,a5
80003510:	0080006f          	j	80003518 <atol+0xf8>
80003514:	fec42783          	lw	a5,-20(s0)
80003518:	00078513          	mv	a0,a5
8000351c:	02c12403          	lw	s0,44(sp)
80003520:	03010113          	addi	sp,sp,48
80003524:	00008067          	ret

80003528 <atoi>:
80003528:	fd010113          	addi	sp,sp,-48
8000352c:	02112623          	sw	ra,44(sp)
80003530:	02812423          	sw	s0,40(sp)
80003534:	03010413          	addi	s0,sp,48
80003538:	fca42e23          	sw	a0,-36(s0)
8000353c:	fe042623          	sw	zero,-20(s0)
80003540:	fe042423          	sw	zero,-24(s0)
80003544:	fe042223          	sw	zero,-28(s0)
80003548:	0100006f          	j	80003558 <atoi+0x30>
8000354c:	fe442783          	lw	a5,-28(s0)
80003550:	00178793          	addi	a5,a5,1
80003554:	fef42223          	sw	a5,-28(s0)
80003558:	fe442783          	lw	a5,-28(s0)
8000355c:	fdc42703          	lw	a4,-36(s0)
80003560:	00f707b3          	add	a5,a4,a5
80003564:	0007c783          	lbu	a5,0(a5)
80003568:	00005597          	auipc	a1,0x5
8000356c:	82858593          	addi	a1,a1,-2008 # 80007d90 <_ctype_+0x2b0>
80003570:	00078513          	mv	a0,a5
80003574:	1cd000ef          	jal	80003f40 <chrnlst>
80003578:	00050793          	mv	a5,a0
8000357c:	fc0798e3          	bnez	a5,8000354c <atoi+0x24>
80003580:	fe442783          	lw	a5,-28(s0)
80003584:	fdc42703          	lw	a4,-36(s0)
80003588:	00f707b3          	add	a5,a4,a5
8000358c:	0007c703          	lbu	a4,0(a5)
80003590:	02d00793          	li	a5,45
80003594:	00f71e63          	bne	a4,a5,800035b0 <atoi+0x88>
80003598:	00100793          	li	a5,1
8000359c:	fef42423          	sw	a5,-24(s0)
800035a0:	fe442783          	lw	a5,-28(s0)
800035a4:	00178793          	addi	a5,a5,1
800035a8:	fef42223          	sw	a5,-28(s0)
800035ac:	0700006f          	j	8000361c <atoi+0xf4>
800035b0:	fe442783          	lw	a5,-28(s0)
800035b4:	fdc42703          	lw	a4,-36(s0)
800035b8:	00f707b3          	add	a5,a4,a5
800035bc:	0007c703          	lbu	a4,0(a5)
800035c0:	02b00793          	li	a5,43
800035c4:	04f71c63          	bne	a4,a5,8000361c <atoi+0xf4>
800035c8:	fe442783          	lw	a5,-28(s0)
800035cc:	00178793          	addi	a5,a5,1
800035d0:	fef42223          	sw	a5,-28(s0)
800035d4:	0480006f          	j	8000361c <atoi+0xf4>
800035d8:	fec42703          	lw	a4,-20(s0)
800035dc:	00070793          	mv	a5,a4
800035e0:	00279793          	slli	a5,a5,0x2
800035e4:	00e787b3          	add	a5,a5,a4
800035e8:	00179793          	slli	a5,a5,0x1
800035ec:	fef42623          	sw	a5,-20(s0)
800035f0:	fe442783          	lw	a5,-28(s0)
800035f4:	fdc42703          	lw	a4,-36(s0)
800035f8:	00f707b3          	add	a5,a4,a5
800035fc:	0007c783          	lbu	a5,0(a5)
80003600:	fd078793          	addi	a5,a5,-48
80003604:	fec42703          	lw	a4,-20(s0)
80003608:	00f707b3          	add	a5,a4,a5
8000360c:	fef42623          	sw	a5,-20(s0)
80003610:	fe442783          	lw	a5,-28(s0)
80003614:	00178793          	addi	a5,a5,1
80003618:	fef42223          	sw	a5,-28(s0)
8000361c:	fe442783          	lw	a5,-28(s0)
80003620:	fdc42703          	lw	a4,-36(s0)
80003624:	00f707b3          	add	a5,a4,a5
80003628:	0007c703          	lbu	a4,0(a5)
8000362c:	02f00793          	li	a5,47
80003630:	00e7fe63          	bgeu	a5,a4,8000364c <atoi+0x124>
80003634:	fe442783          	lw	a5,-28(s0)
80003638:	fdc42703          	lw	a4,-36(s0)
8000363c:	00f707b3          	add	a5,a4,a5
80003640:	0007c703          	lbu	a4,0(a5)
80003644:	03900793          	li	a5,57
80003648:	f8e7f8e3          	bgeu	a5,a4,800035d8 <atoi+0xb0>
8000364c:	fe842783          	lw	a5,-24(s0)
80003650:	00078663          	beqz	a5,8000365c <atoi+0x134>
80003654:	fff00793          	li	a5,-1
80003658:	0080006f          	j	80003660 <atoi+0x138>
8000365c:	00100793          	li	a5,1
80003660:	fec42703          	lw	a4,-20(s0)
80003664:	02e787b3          	mul	a5,a5,a4
80003668:	00078513          	mv	a0,a5
8000366c:	02c12083          	lw	ra,44(sp)
80003670:	02812403          	lw	s0,40(sp)
80003674:	03010113          	addi	sp,sp,48
80003678:	00008067          	ret

8000367c <int_abs>:
8000367c:	fe010113          	addi	sp,sp,-32
80003680:	00812e23          	sw	s0,28(sp)
80003684:	02010413          	addi	s0,sp,32
80003688:	fea42623          	sw	a0,-20(s0)
8000368c:	fec42783          	lw	a5,-20(s0)
80003690:	00f05663          	blez	a5,8000369c <int_abs+0x20>
80003694:	fec42783          	lw	a5,-20(s0)
80003698:	00c0006f          	j	800036a4 <int_abs+0x28>
8000369c:	fec42783          	lw	a5,-20(s0)
800036a0:	40f007b3          	neg	a5,a5
800036a4:	00078513          	mv	a0,a5
800036a8:	01c12403          	lw	s0,28(sp)
800036ac:	02010113          	addi	sp,sp,32
800036b0:	00008067          	ret

800036b4 <itoa>:
800036b4:	fd010113          	addi	sp,sp,-48
800036b8:	02112623          	sw	ra,44(sp)
800036bc:	02812423          	sw	s0,40(sp)
800036c0:	03010413          	addi	s0,sp,48
800036c4:	fca42e23          	sw	a0,-36(s0)
800036c8:	fcb42c23          	sw	a1,-40(s0)
800036cc:	fcc42a23          	sw	a2,-44(s0)
800036d0:	fcd42823          	sw	a3,-48(s0)
800036d4:	fe042623          	sw	zero,-20(s0)
800036d8:	fd442783          	lw	a5,-44(s0)
800036dc:	00079663          	bnez	a5,800036e8 <itoa+0x34>
800036e0:	00000793          	li	a5,0
800036e4:	08c0006f          	j	80003770 <itoa+0xbc>
800036e8:	fd042703          	lw	a4,-48(s0)
800036ec:	00100793          	li	a5,1
800036f0:	00e7f863          	bgeu	a5,a4,80003700 <itoa+0x4c>
800036f4:	fd042703          	lw	a4,-48(s0)
800036f8:	02400793          	li	a5,36
800036fc:	00e7f663          	bgeu	a5,a4,80003708 <itoa+0x54>
80003700:	00000793          	li	a5,0
80003704:	06c0006f          	j	80003770 <itoa+0xbc>
80003708:	fdc42783          	lw	a5,-36(s0)
8000370c:	0207d863          	bgez	a5,8000373c <itoa+0x88>
80003710:	fec42783          	lw	a5,-20(s0)
80003714:	00178713          	addi	a4,a5,1
80003718:	fee42623          	sw	a4,-20(s0)
8000371c:	00078713          	mv	a4,a5
80003720:	fd842783          	lw	a5,-40(s0)
80003724:	00e787b3          	add	a5,a5,a4
80003728:	02d00713          	li	a4,45
8000372c:	00e78023          	sb	a4,0(a5)
80003730:	fd442783          	lw	a5,-44(s0)
80003734:	fff78793          	addi	a5,a5,-1
80003738:	fcf42a23          	sw	a5,-44(s0)
8000373c:	fdc42503          	lw	a0,-36(s0)
80003740:	f3dff0ef          	jal	8000367c <int_abs>
80003744:	00050793          	mv	a5,a0
80003748:	fcf42e23          	sw	a5,-36(s0)
8000374c:	fdc42503          	lw	a0,-36(s0)
80003750:	fec42783          	lw	a5,-20(s0)
80003754:	fd842703          	lw	a4,-40(s0)
80003758:	00f707b3          	add	a5,a4,a5
8000375c:	fd042683          	lw	a3,-48(s0)
80003760:	fd442603          	lw	a2,-44(s0)
80003764:	00078593          	mv	a1,a5
80003768:	01c000ef          	jal	80003784 <uitoa>
8000376c:	00050793          	mv	a5,a0
80003770:	00078513          	mv	a0,a5
80003774:	02c12083          	lw	ra,44(sp)
80003778:	02812403          	lw	s0,40(sp)
8000377c:	03010113          	addi	sp,sp,48
80003780:	00008067          	ret

80003784 <uitoa>:
80003784:	fb010113          	addi	sp,sp,-80
80003788:	04112623          	sw	ra,76(sp)
8000378c:	04812423          	sw	s0,72(sp)
80003790:	05010413          	addi	s0,sp,80
80003794:	faa42e23          	sw	a0,-68(s0)
80003798:	fab42c23          	sw	a1,-72(s0)
8000379c:	fac42a23          	sw	a2,-76(s0)
800037a0:	fad42823          	sw	a3,-80(s0)
800037a4:	00004797          	auipc	a5,0x4
800037a8:	5f478793          	addi	a5,a5,1524 # 80007d98 <_ctype_+0x2b8>
800037ac:	0007a303          	lw	t1,0(a5)
800037b0:	0047a883          	lw	a7,4(a5)
800037b4:	0087a803          	lw	a6,8(a5)
800037b8:	00c7a503          	lw	a0,12(a5)
800037bc:	0107a583          	lw	a1,16(a5)
800037c0:	0147a603          	lw	a2,20(a5)
800037c4:	0187a683          	lw	a3,24(a5)
800037c8:	01c7a703          	lw	a4,28(a5)
800037cc:	0207a783          	lw	a5,32(a5)
800037d0:	fc642423          	sw	t1,-56(s0)
800037d4:	fd142623          	sw	a7,-52(s0)
800037d8:	fd042823          	sw	a6,-48(s0)
800037dc:	fca42a23          	sw	a0,-44(s0)
800037e0:	fcb42c23          	sw	a1,-40(s0)
800037e4:	fcc42e23          	sw	a2,-36(s0)
800037e8:	fed42023          	sw	a3,-32(s0)
800037ec:	fee42223          	sw	a4,-28(s0)
800037f0:	fef42423          	sw	a5,-24(s0)
800037f4:	fe042623          	sw	zero,-20(s0)
800037f8:	fb442783          	lw	a5,-76(s0)
800037fc:	00079663          	bnez	a5,80003808 <uitoa+0x84>
80003800:	00000793          	li	a5,0
80003804:	0b00006f          	j	800038b4 <uitoa+0x130>
80003808:	fb042703          	lw	a4,-80(s0)
8000380c:	00100793          	li	a5,1
80003810:	00e7f863          	bgeu	a5,a4,80003820 <uitoa+0x9c>
80003814:	fb042703          	lw	a4,-80(s0)
80003818:	02400793          	li	a5,36
8000381c:	00e7f663          	bgeu	a5,a4,80003828 <uitoa+0xa4>
80003820:	00000793          	li	a5,0
80003824:	0900006f          	j	800038b4 <uitoa+0x130>
80003828:	fbc42703          	lw	a4,-68(s0)
8000382c:	fb042783          	lw	a5,-80(s0)
80003830:	02f77733          	remu	a4,a4,a5
80003834:	fec42783          	lw	a5,-20(s0)
80003838:	00178693          	addi	a3,a5,1
8000383c:	fed42623          	sw	a3,-20(s0)
80003840:	00078693          	mv	a3,a5
80003844:	fb842783          	lw	a5,-72(s0)
80003848:	00d787b3          	add	a5,a5,a3
8000384c:	ff070713          	addi	a4,a4,-16
80003850:	00870733          	add	a4,a4,s0
80003854:	fd874703          	lbu	a4,-40(a4)
80003858:	00e78023          	sb	a4,0(a5)
8000385c:	fb442783          	lw	a5,-76(s0)
80003860:	fff78793          	addi	a5,a5,-1
80003864:	faf42a23          	sw	a5,-76(s0)
80003868:	fb442783          	lw	a5,-76(s0)
8000386c:	00078e63          	beqz	a5,80003888 <uitoa+0x104>
80003870:	fbc42703          	lw	a4,-68(s0)
80003874:	fb042783          	lw	a5,-80(s0)
80003878:	02f757b3          	divu	a5,a4,a5
8000387c:	faf42e23          	sw	a5,-68(s0)
80003880:	fbc42783          	lw	a5,-68(s0)
80003884:	fa0792e3          	bnez	a5,80003828 <uitoa+0xa4>
80003888:	fb442783          	lw	a5,-76(s0)
8000388c:	00079663          	bnez	a5,80003898 <uitoa+0x114>
80003890:	00000793          	li	a5,0
80003894:	0200006f          	j	800038b4 <uitoa+0x130>
80003898:	fec42783          	lw	a5,-20(s0)
8000389c:	fb842703          	lw	a4,-72(s0)
800038a0:	00f707b3          	add	a5,a4,a5
800038a4:	00078023          	sb	zero,0(a5)
800038a8:	fb842503          	lw	a0,-72(s0)
800038ac:	3dc000ef          	jal	80003c88 <strreverse>
800038b0:	fb842783          	lw	a5,-72(s0)
800038b4:	00078513          	mv	a0,a5
800038b8:	04c12083          	lw	ra,76(sp)
800038bc:	04812403          	lw	s0,72(sp)
800038c0:	05010113          	addi	sp,sp,80
800038c4:	00008067          	ret

800038c8 <bzero>:
800038c8:	fd010113          	addi	sp,sp,-48
800038cc:	02812623          	sw	s0,44(sp)
800038d0:	03010413          	addi	s0,sp,48
800038d4:	fca42e23          	sw	a0,-36(s0)
800038d8:	fcb42c23          	sw	a1,-40(s0)
800038dc:	fdc42783          	lw	a5,-36(s0)
800038e0:	fef42423          	sw	a5,-24(s0)
800038e4:	fd842783          	lw	a5,-40(s0)
800038e8:	fef42623          	sw	a5,-20(s0)
800038ec:	fec42783          	lw	a5,-20(s0)
800038f0:	02f05663          	blez	a5,8000391c <bzero+0x54>
800038f4:	fe842783          	lw	a5,-24(s0)
800038f8:	00178713          	addi	a4,a5,1
800038fc:	fee42423          	sw	a4,-24(s0)
80003900:	00078023          	sb	zero,0(a5)
80003904:	fec42783          	lw	a5,-20(s0)
80003908:	fff78793          	addi	a5,a5,-1
8000390c:	fef42623          	sw	a5,-20(s0)
80003910:	fec42783          	lw	a5,-20(s0)
80003914:	fe0790e3          	bnez	a5,800038f4 <bzero+0x2c>
80003918:	0080006f          	j	80003920 <bzero+0x58>
8000391c:	00000013          	nop
80003920:	02c12403          	lw	s0,44(sp)
80003924:	03010113          	addi	sp,sp,48
80003928:	00008067          	ret

8000392c <memchr>:
8000392c:	fd010113          	addi	sp,sp,-48
80003930:	02812623          	sw	s0,44(sp)
80003934:	03010413          	addi	s0,sp,48
80003938:	fca42e23          	sw	a0,-36(s0)
8000393c:	fcb42c23          	sw	a1,-40(s0)
80003940:	fcc42a23          	sw	a2,-44(s0)
80003944:	fdc42783          	lw	a5,-36(s0)
80003948:	fef42623          	sw	a5,-20(s0)
8000394c:	02c0006f          	j	80003978 <memchr+0x4c>
80003950:	fec42783          	lw	a5,-20(s0)
80003954:	0007c783          	lbu	a5,0(a5)
80003958:	00078713          	mv	a4,a5
8000395c:	fd842783          	lw	a5,-40(s0)
80003960:	00e79663          	bne	a5,a4,8000396c <memchr+0x40>
80003964:	fec42783          	lw	a5,-20(s0)
80003968:	0240006f          	j	8000398c <memchr+0x60>
8000396c:	fec42783          	lw	a5,-20(s0)
80003970:	00178793          	addi	a5,a5,1
80003974:	fef42623          	sw	a5,-20(s0)
80003978:	fd442783          	lw	a5,-44(s0)
8000397c:	fff78713          	addi	a4,a5,-1
80003980:	fce42a23          	sw	a4,-44(s0)
80003984:	fc0796e3          	bnez	a5,80003950 <memchr+0x24>
80003988:	00000793          	li	a5,0
8000398c:	00078513          	mv	a0,a5
80003990:	02c12403          	lw	s0,44(sp)
80003994:	03010113          	addi	sp,sp,48
80003998:	00008067          	ret

8000399c <memcmp>:
8000399c:	fd010113          	addi	sp,sp,-48
800039a0:	02812623          	sw	s0,44(sp)
800039a4:	03010413          	addi	s0,sp,48
800039a8:	fca42e23          	sw	a0,-36(s0)
800039ac:	fcb42c23          	sw	a1,-40(s0)
800039b0:	fcc42a23          	sw	a2,-44(s0)
800039b4:	fdc42783          	lw	a5,-36(s0)
800039b8:	fef42623          	sw	a5,-20(s0)
800039bc:	fd842783          	lw	a5,-40(s0)
800039c0:	fef42423          	sw	a5,-24(s0)
800039c4:	0540006f          	j	80003a18 <memcmp+0x7c>
800039c8:	fec42783          	lw	a5,-20(s0)
800039cc:	0007c703          	lbu	a4,0(a5)
800039d0:	fe842783          	lw	a5,-24(s0)
800039d4:	0007c783          	lbu	a5,0(a5)
800039d8:	02f70463          	beq	a4,a5,80003a00 <memcmp+0x64>
800039dc:	fec42783          	lw	a5,-20(s0)
800039e0:	0007c703          	lbu	a4,0(a5)
800039e4:	fe842783          	lw	a5,-24(s0)
800039e8:	0007c783          	lbu	a5,0(a5)
800039ec:	00e7f663          	bgeu	a5,a4,800039f8 <memcmp+0x5c>
800039f0:	00100793          	li	a5,1
800039f4:	0380006f          	j	80003a2c <memcmp+0x90>
800039f8:	fff00793          	li	a5,-1
800039fc:	0300006f          	j	80003a2c <memcmp+0x90>
80003a00:	fec42783          	lw	a5,-20(s0)
80003a04:	00178793          	addi	a5,a5,1
80003a08:	fef42623          	sw	a5,-20(s0)
80003a0c:	fe842783          	lw	a5,-24(s0)
80003a10:	00178793          	addi	a5,a5,1
80003a14:	fef42423          	sw	a5,-24(s0)
80003a18:	fd442783          	lw	a5,-44(s0)
80003a1c:	fff78713          	addi	a4,a5,-1
80003a20:	fce42a23          	sw	a4,-44(s0)
80003a24:	fa0792e3          	bnez	a5,800039c8 <memcmp+0x2c>
80003a28:	00000793          	li	a5,0
80003a2c:	00078513          	mv	a0,a5
80003a30:	02c12403          	lw	s0,44(sp)
80003a34:	03010113          	addi	sp,sp,48
80003a38:	00008067          	ret

80003a3c <memset>:
80003a3c:	fd010113          	addi	sp,sp,-48
80003a40:	02812623          	sw	s0,44(sp)
80003a44:	03010413          	addi	s0,sp,48
80003a48:	fca42e23          	sw	a0,-36(s0)
80003a4c:	00058793          	mv	a5,a1
80003a50:	fcc42a23          	sw	a2,-44(s0)
80003a54:	fcf40da3          	sb	a5,-37(s0)
80003a58:	fdc42703          	lw	a4,-36(s0)
80003a5c:	fd442783          	lw	a5,-44(s0)
80003a60:	00f707b3          	add	a5,a4,a5
80003a64:	fef42623          	sw	a5,-20(s0)
80003a68:	01c0006f          	j	80003a84 <memset+0x48>
80003a6c:	fdc42783          	lw	a5,-36(s0)
80003a70:	fdb44703          	lbu	a4,-37(s0)
80003a74:	00e78023          	sb	a4,0(a5)
80003a78:	fdc42783          	lw	a5,-36(s0)
80003a7c:	00178793          	addi	a5,a5,1
80003a80:	fcf42e23          	sw	a5,-36(s0)
80003a84:	fdc42703          	lw	a4,-36(s0)
80003a88:	fec42783          	lw	a5,-20(s0)
80003a8c:	fef760e3          	bltu	a4,a5,80003a6c <memset+0x30>
80003a90:	00000013          	nop
80003a94:	00000013          	nop
80003a98:	02c12403          	lw	s0,44(sp)
80003a9c:	03010113          	addi	sp,sp,48
80003aa0:	00008067          	ret

80003aa4 <memcpy>:
80003aa4:	fd010113          	addi	sp,sp,-48
80003aa8:	02812623          	sw	s0,44(sp)
80003aac:	02912423          	sw	s1,40(sp)
80003ab0:	03010413          	addi	s0,sp,48
80003ab4:	fca42e23          	sw	a0,-36(s0)
80003ab8:	fcb42c23          	sw	a1,-40(s0)
80003abc:	fcc42a23          	sw	a2,-44(s0)
80003ac0:	fdc42783          	lw	a5,-36(s0)
80003ac4:	fef42623          	sw	a5,-20(s0)
80003ac8:	fd842783          	lw	a5,-40(s0)
80003acc:	fef42423          	sw	a5,-24(s0)
80003ad0:	00000493          	li	s1,0
80003ad4:	0280006f          	j	80003afc <memcpy+0x58>
80003ad8:	fe842703          	lw	a4,-24(s0)
80003adc:	00170793          	addi	a5,a4,1
80003ae0:	fef42423          	sw	a5,-24(s0)
80003ae4:	fec42783          	lw	a5,-20(s0)
80003ae8:	00178693          	addi	a3,a5,1
80003aec:	fed42623          	sw	a3,-20(s0)
80003af0:	00074703          	lbu	a4,0(a4)
80003af4:	00e78023          	sb	a4,0(a5)
80003af8:	00148493          	addi	s1,s1,1
80003afc:	fd442783          	lw	a5,-44(s0)
80003b00:	fcf4cce3          	blt	s1,a5,80003ad8 <memcpy+0x34>
80003b04:	fdc42783          	lw	a5,-36(s0)
80003b08:	00078513          	mv	a0,a5
80003b0c:	02c12403          	lw	s0,44(sp)
80003b10:	02812483          	lw	s1,40(sp)
80003b14:	03010113          	addi	sp,sp,48
80003b18:	00008067          	ret

80003b1c <memmove>:
80003b1c:	fd010113          	addi	sp,sp,-48
80003b20:	02812623          	sw	s0,44(sp)
80003b24:	03010413          	addi	s0,sp,48
80003b28:	fca42e23          	sw	a0,-36(s0)
80003b2c:	fcb42c23          	sw	a1,-40(s0)
80003b30:	fcc42a23          	sw	a2,-44(s0)
80003b34:	fd842783          	lw	a5,-40(s0)
80003b38:	fef42623          	sw	a5,-20(s0)
80003b3c:	fdc42783          	lw	a5,-36(s0)
80003b40:	fef42423          	sw	a5,-24(s0)
80003b44:	fec42703          	lw	a4,-20(s0)
80003b48:	fe842783          	lw	a5,-24(s0)
80003b4c:	04f77e63          	bgeu	a4,a5,80003ba8 <memmove+0x8c>
80003b50:	0240006f          	j	80003b74 <memmove+0x58>
80003b54:	fec42703          	lw	a4,-20(s0)
80003b58:	fd442783          	lw	a5,-44(s0)
80003b5c:	00f70733          	add	a4,a4,a5
80003b60:	fe842683          	lw	a3,-24(s0)
80003b64:	fd442783          	lw	a5,-44(s0)
80003b68:	00f687b3          	add	a5,a3,a5
80003b6c:	00074703          	lbu	a4,0(a4)
80003b70:	00e78023          	sb	a4,0(a5)
80003b74:	fd442783          	lw	a5,-44(s0)
80003b78:	fff78713          	addi	a4,a5,-1
80003b7c:	fce42a23          	sw	a4,-44(s0)
80003b80:	fc079ae3          	bnez	a5,80003b54 <memmove+0x38>
80003b84:	0340006f          	j	80003bb8 <memmove+0x9c>
80003b88:	fec42703          	lw	a4,-20(s0)
80003b8c:	00170793          	addi	a5,a4,1
80003b90:	fef42623          	sw	a5,-20(s0)
80003b94:	fe842783          	lw	a5,-24(s0)
80003b98:	00178693          	addi	a3,a5,1
80003b9c:	fed42423          	sw	a3,-24(s0)
80003ba0:	00074703          	lbu	a4,0(a4)
80003ba4:	00e78023          	sb	a4,0(a5)
80003ba8:	fd442783          	lw	a5,-44(s0)
80003bac:	fff78713          	addi	a4,a5,-1
80003bb0:	fce42a23          	sw	a4,-44(s0)
80003bb4:	fc079ae3          	bnez	a5,80003b88 <memmove+0x6c>
80003bb8:	00000013          	nop
80003bbc:	02c12403          	lw	s0,44(sp)
80003bc0:	03010113          	addi	sp,sp,48
80003bc4:	00008067          	ret

80003bc8 <strchr>:
80003bc8:	fe010113          	addi	sp,sp,-32
80003bcc:	00812e23          	sw	s0,28(sp)
80003bd0:	02010413          	addi	s0,sp,32
80003bd4:	fea42623          	sw	a0,-20(s0)
80003bd8:	feb42423          	sw	a1,-24(s0)
80003bdc:	0100006f          	j	80003bec <strchr+0x24>
80003be0:	fec42783          	lw	a5,-20(s0)
80003be4:	00178793          	addi	a5,a5,1
80003be8:	fef42623          	sw	a5,-20(s0)
80003bec:	fec42783          	lw	a5,-20(s0)
80003bf0:	0007c783          	lbu	a5,0(a5)
80003bf4:	00078713          	mv	a4,a5
80003bf8:	fe842783          	lw	a5,-24(s0)
80003bfc:	00e78863          	beq	a5,a4,80003c0c <strchr+0x44>
80003c00:	fec42783          	lw	a5,-20(s0)
80003c04:	0007c783          	lbu	a5,0(a5)
80003c08:	fc079ce3          	bnez	a5,80003be0 <strchr+0x18>
80003c0c:	fec42783          	lw	a5,-20(s0)
80003c10:	0007c783          	lbu	a5,0(a5)
80003c14:	00078713          	mv	a4,a5
80003c18:	fe842783          	lw	a5,-24(s0)
80003c1c:	00e79663          	bne	a5,a4,80003c28 <strchr+0x60>
80003c20:	fec42783          	lw	a5,-20(s0)
80003c24:	0080006f          	j	80003c2c <strchr+0x64>
80003c28:	00000793          	li	a5,0
80003c2c:	00078513          	mv	a0,a5
80003c30:	01c12403          	lw	s0,28(sp)
80003c34:	02010113          	addi	sp,sp,32
80003c38:	00008067          	ret

80003c3c <strlen>:
80003c3c:	fd010113          	addi	sp,sp,-48
80003c40:	02812623          	sw	s0,44(sp)
80003c44:	03010413          	addi	s0,sp,48
80003c48:	fca42e23          	sw	a0,-36(s0)
80003c4c:	fe042623          	sw	zero,-20(s0)
80003c50:	0100006f          	j	80003c60 <strlen+0x24>
80003c54:	fec42783          	lw	a5,-20(s0)
80003c58:	00178793          	addi	a5,a5,1
80003c5c:	fef42623          	sw	a5,-20(s0)
80003c60:	fdc42783          	lw	a5,-36(s0)
80003c64:	00178713          	addi	a4,a5,1
80003c68:	fce42e23          	sw	a4,-36(s0)
80003c6c:	0007c783          	lbu	a5,0(a5)
80003c70:	fe0792e3          	bnez	a5,80003c54 <strlen+0x18>
80003c74:	fec42783          	lw	a5,-20(s0)
80003c78:	00078513          	mv	a0,a5
80003c7c:	02c12403          	lw	s0,44(sp)
80003c80:	03010113          	addi	sp,sp,48
80003c84:	00008067          	ret

80003c88 <strreverse>:
80003c88:	fd010113          	addi	sp,sp,-48
80003c8c:	02812623          	sw	s0,44(sp)
80003c90:	03010413          	addi	s0,sp,48
80003c94:	fca42e23          	sw	a0,-36(s0)
80003c98:	fdc42783          	lw	a5,-36(s0)
80003c9c:	fef42623          	sw	a5,-20(s0)
80003ca0:	fdc42783          	lw	a5,-36(s0)
80003ca4:	08078263          	beqz	a5,80003d28 <strreverse+0xa0>
80003ca8:	fdc42783          	lw	a5,-36(s0)
80003cac:	0007c783          	lbu	a5,0(a5)
80003cb0:	06078c63          	beqz	a5,80003d28 <strreverse+0xa0>
80003cb4:	00000013          	nop
80003cb8:	fdc42783          	lw	a5,-36(s0)
80003cbc:	00178793          	addi	a5,a5,1
80003cc0:	fcf42e23          	sw	a5,-36(s0)
80003cc4:	fdc42783          	lw	a5,-36(s0)
80003cc8:	0007c783          	lbu	a5,0(a5)
80003ccc:	fe0796e3          	bnez	a5,80003cb8 <strreverse+0x30>
80003cd0:	fdc42783          	lw	a5,-36(s0)
80003cd4:	fff78793          	addi	a5,a5,-1
80003cd8:	fcf42e23          	sw	a5,-36(s0)
80003cdc:	03c0006f          	j	80003d18 <strreverse+0x90>
80003ce0:	fec42783          	lw	a5,-20(s0)
80003ce4:	0007c783          	lbu	a5,0(a5)
80003ce8:	fef405a3          	sb	a5,-21(s0)
80003cec:	fec42783          	lw	a5,-20(s0)
80003cf0:	00178713          	addi	a4,a5,1
80003cf4:	fee42623          	sw	a4,-20(s0)
80003cf8:	fdc42703          	lw	a4,-36(s0)
80003cfc:	00074703          	lbu	a4,0(a4)
80003d00:	00e78023          	sb	a4,0(a5)
80003d04:	fdc42783          	lw	a5,-36(s0)
80003d08:	fff78713          	addi	a4,a5,-1
80003d0c:	fce42e23          	sw	a4,-36(s0)
80003d10:	feb44703          	lbu	a4,-21(s0)
80003d14:	00e78023          	sb	a4,0(a5)
80003d18:	fdc42703          	lw	a4,-36(s0)
80003d1c:	fec42783          	lw	a5,-20(s0)
80003d20:	fce7e0e3          	bltu	a5,a4,80003ce0 <strreverse+0x58>
80003d24:	0080006f          	j	80003d2c <strreverse+0xa4>
80003d28:	00000013          	nop
80003d2c:	02c12403          	lw	s0,44(sp)
80003d30:	03010113          	addi	sp,sp,48
80003d34:	00008067          	ret

80003d38 <strcmp>:
80003d38:	fe010113          	addi	sp,sp,-32
80003d3c:	00812e23          	sw	s0,28(sp)
80003d40:	02010413          	addi	s0,sp,32
80003d44:	fea42623          	sw	a0,-20(s0)
80003d48:	feb42423          	sw	a1,-24(s0)
80003d4c:	01c0006f          	j	80003d68 <strcmp+0x30>
80003d50:	fec42783          	lw	a5,-20(s0)
80003d54:	00178793          	addi	a5,a5,1
80003d58:	fef42623          	sw	a5,-20(s0)
80003d5c:	fe842783          	lw	a5,-24(s0)
80003d60:	00178793          	addi	a5,a5,1
80003d64:	fef42423          	sw	a5,-24(s0)
80003d68:	fec42783          	lw	a5,-20(s0)
80003d6c:	0007c703          	lbu	a4,0(a5)
80003d70:	fe842783          	lw	a5,-24(s0)
80003d74:	0007c783          	lbu	a5,0(a5)
80003d78:	00f71e63          	bne	a4,a5,80003d94 <strcmp+0x5c>
80003d7c:	fec42783          	lw	a5,-20(s0)
80003d80:	0007c783          	lbu	a5,0(a5)
80003d84:	00078863          	beqz	a5,80003d94 <strcmp+0x5c>
80003d88:	fe842783          	lw	a5,-24(s0)
80003d8c:	0007c783          	lbu	a5,0(a5)
80003d90:	fc0790e3          	bnez	a5,80003d50 <strcmp+0x18>
80003d94:	fec42783          	lw	a5,-20(s0)
80003d98:	0007c703          	lbu	a4,0(a5)
80003d9c:	fe842783          	lw	a5,-24(s0)
80003da0:	0007c783          	lbu	a5,0(a5)
80003da4:	00f71663          	bne	a4,a5,80003db0 <strcmp+0x78>
80003da8:	00000793          	li	a5,0
80003dac:	0240006f          	j	80003dd0 <strcmp+0x98>
80003db0:	fec42783          	lw	a5,-20(s0)
80003db4:	0007c703          	lbu	a4,0(a5)
80003db8:	fe842783          	lw	a5,-24(s0)
80003dbc:	0007c783          	lbu	a5,0(a5)
80003dc0:	00e7f663          	bgeu	a5,a4,80003dcc <strcmp+0x94>
80003dc4:	00100793          	li	a5,1
80003dc8:	0080006f          	j	80003dd0 <strcmp+0x98>
80003dcc:	fff00793          	li	a5,-1
80003dd0:	00078513          	mv	a0,a5
80003dd4:	01c12403          	lw	s0,28(sp)
80003dd8:	02010113          	addi	sp,sp,32
80003ddc:	00008067          	ret

80003de0 <strncmp>:
80003de0:	fe010113          	addi	sp,sp,-32
80003de4:	00812e23          	sw	s0,28(sp)
80003de8:	02010413          	addi	s0,sp,32
80003dec:	fea42623          	sw	a0,-20(s0)
80003df0:	feb42423          	sw	a1,-24(s0)
80003df4:	fec42223          	sw	a2,-28(s0)
80003df8:	0280006f          	j	80003e20 <strncmp+0x40>
80003dfc:	fec42783          	lw	a5,-20(s0)
80003e00:	00178793          	addi	a5,a5,1
80003e04:	fef42623          	sw	a5,-20(s0)
80003e08:	fe842783          	lw	a5,-24(s0)
80003e0c:	00178793          	addi	a5,a5,1
80003e10:	fef42423          	sw	a5,-24(s0)
80003e14:	fe442783          	lw	a5,-28(s0)
80003e18:	fff78793          	addi	a5,a5,-1
80003e1c:	fef42223          	sw	a5,-28(s0)
80003e20:	fec42783          	lw	a5,-20(s0)
80003e24:	0007c703          	lbu	a4,0(a5)
80003e28:	fe842783          	lw	a5,-24(s0)
80003e2c:	0007c783          	lbu	a5,0(a5)
80003e30:	02f71263          	bne	a4,a5,80003e54 <strncmp+0x74>
80003e34:	fec42783          	lw	a5,-20(s0)
80003e38:	0007c783          	lbu	a5,0(a5)
80003e3c:	00078c63          	beqz	a5,80003e54 <strncmp+0x74>
80003e40:	fe842783          	lw	a5,-24(s0)
80003e44:	0007c783          	lbu	a5,0(a5)
80003e48:	00078663          	beqz	a5,80003e54 <strncmp+0x74>
80003e4c:	fe442783          	lw	a5,-28(s0)
80003e50:	fa0796e3          	bnez	a5,80003dfc <strncmp+0x1c>
80003e54:	fe442783          	lw	a5,-28(s0)
80003e58:	00078c63          	beqz	a5,80003e70 <strncmp+0x90>
80003e5c:	fec42783          	lw	a5,-20(s0)
80003e60:	0007c703          	lbu	a4,0(a5)
80003e64:	fe842783          	lw	a5,-24(s0)
80003e68:	0007c783          	lbu	a5,0(a5)
80003e6c:	00f71663          	bne	a4,a5,80003e78 <strncmp+0x98>
80003e70:	00000793          	li	a5,0
80003e74:	0240006f          	j	80003e98 <strncmp+0xb8>
80003e78:	fec42783          	lw	a5,-20(s0)
80003e7c:	0007c703          	lbu	a4,0(a5)
80003e80:	fe842783          	lw	a5,-24(s0)
80003e84:	0007c783          	lbu	a5,0(a5)
80003e88:	00e7f663          	bgeu	a5,a4,80003e94 <strncmp+0xb4>
80003e8c:	00100793          	li	a5,1
80003e90:	0080006f          	j	80003e98 <strncmp+0xb8>
80003e94:	fff00793          	li	a5,-1
80003e98:	00078513          	mv	a0,a5
80003e9c:	01c12403          	lw	s0,28(sp)
80003ea0:	02010113          	addi	sp,sp,32
80003ea4:	00008067          	ret

80003ea8 <strncpy>:
80003ea8:	fd010113          	addi	sp,sp,-48
80003eac:	02812623          	sw	s0,44(sp)
80003eb0:	03010413          	addi	s0,sp,48
80003eb4:	fca42e23          	sw	a0,-36(s0)
80003eb8:	fcb42c23          	sw	a1,-40(s0)
80003ebc:	fcc42a23          	sw	a2,-44(s0)
80003ec0:	fdc42783          	lw	a5,-36(s0)
80003ec4:	fef42623          	sw	a5,-20(s0)
80003ec8:	0240006f          	j	80003eec <strncpy+0x44>
80003ecc:	fd842703          	lw	a4,-40(s0)
80003ed0:	00170793          	addi	a5,a4,1
80003ed4:	fcf42c23          	sw	a5,-40(s0)
80003ed8:	fdc42783          	lw	a5,-36(s0)
80003edc:	00178693          	addi	a3,a5,1
80003ee0:	fcd42e23          	sw	a3,-36(s0)
80003ee4:	00074703          	lbu	a4,0(a4)
80003ee8:	00e78023          	sb	a4,0(a5)
80003eec:	fd842783          	lw	a5,-40(s0)
80003ef0:	0007c783          	lbu	a5,0(a5)
80003ef4:	02078463          	beqz	a5,80003f1c <strncpy+0x74>
80003ef8:	fd442783          	lw	a5,-44(s0)
80003efc:	fff78713          	addi	a4,a5,-1
80003f00:	fce42a23          	sw	a4,-44(s0)
80003f04:	fcf044e3          	bgtz	a5,80003ecc <strncpy+0x24>
80003f08:	0140006f          	j	80003f1c <strncpy+0x74>
80003f0c:	fdc42783          	lw	a5,-36(s0)
80003f10:	00178713          	addi	a4,a5,1
80003f14:	fce42e23          	sw	a4,-36(s0)
80003f18:	00078023          	sb	zero,0(a5)
80003f1c:	fd442783          	lw	a5,-44(s0)
80003f20:	fff78713          	addi	a4,a5,-1
80003f24:	fce42a23          	sw	a4,-44(s0)
80003f28:	fef042e3          	bgtz	a5,80003f0c <strncpy+0x64>
80003f2c:	fec42783          	lw	a5,-20(s0)
80003f30:	00078513          	mv	a0,a5
80003f34:	02c12403          	lw	s0,44(sp)
80003f38:	03010113          	addi	sp,sp,48
80003f3c:	00008067          	ret

80003f40 <chrnlst>:
80003f40:	fd010113          	addi	sp,sp,-48
80003f44:	02812623          	sw	s0,44(sp)
80003f48:	03010413          	addi	s0,sp,48
80003f4c:	00050793          	mv	a5,a0
80003f50:	fcb42c23          	sw	a1,-40(s0)
80003f54:	fcf40fa3          	sb	a5,-33(s0)
80003f58:	fe042623          	sw	zero,-20(s0)
80003f5c:	0300006f          	j	80003f8c <chrnlst+0x4c>
80003f60:	fec42783          	lw	a5,-20(s0)
80003f64:	fd842703          	lw	a4,-40(s0)
80003f68:	00f707b3          	add	a5,a4,a5
80003f6c:	0007c783          	lbu	a5,0(a5)
80003f70:	fdf44703          	lbu	a4,-33(s0)
80003f74:	00f71663          	bne	a4,a5,80003f80 <chrnlst+0x40>
80003f78:	00100793          	li	a5,1
80003f7c:	0280006f          	j	80003fa4 <chrnlst+0x64>
80003f80:	fec42783          	lw	a5,-20(s0)
80003f84:	00178793          	addi	a5,a5,1
80003f88:	fef42623          	sw	a5,-20(s0)
80003f8c:	fec42783          	lw	a5,-20(s0)
80003f90:	fd842703          	lw	a4,-40(s0)
80003f94:	00f707b3          	add	a5,a4,a5
80003f98:	0007c783          	lbu	a5,0(a5)
80003f9c:	fc0792e3          	bnez	a5,80003f60 <chrnlst+0x20>
80003fa0:	00000793          	li	a5,0
80003fa4:	00078513          	mv	a0,a5
80003fa8:	02c12403          	lw	s0,44(sp)
80003fac:	03010113          	addi	sp,sp,48
80003fb0:	00008067          	ret

80003fb4 <strncat>:
80003fb4:	fd010113          	addi	sp,sp,-48
80003fb8:	02812623          	sw	s0,44(sp)
80003fbc:	03010413          	addi	s0,sp,48
80003fc0:	fca42e23          	sw	a0,-36(s0)
80003fc4:	fcb42c23          	sw	a1,-40(s0)
80003fc8:	fcc42a23          	sw	a2,-44(s0)
80003fcc:	fdc42783          	lw	a5,-36(s0)
80003fd0:	fef42623          	sw	a5,-20(s0)
80003fd4:	00000013          	nop
80003fd8:	fdc42783          	lw	a5,-36(s0)
80003fdc:	00178713          	addi	a4,a5,1
80003fe0:	fce42e23          	sw	a4,-36(s0)
80003fe4:	0007c783          	lbu	a5,0(a5)
80003fe8:	fe0798e3          	bnez	a5,80003fd8 <strncat+0x24>
80003fec:	fdc42783          	lw	a5,-36(s0)
80003ff0:	fff78793          	addi	a5,a5,-1
80003ff4:	fcf42e23          	sw	a5,-36(s0)
80003ff8:	0300006f          	j	80004028 <strncat+0x74>
80003ffc:	fd442783          	lw	a5,-44(s0)
80004000:	fff78793          	addi	a5,a5,-1
80004004:	fcf42a23          	sw	a5,-44(s0)
80004008:	fd442783          	lw	a5,-44(s0)
8000400c:	0007de63          	bgez	a5,80004028 <strncat+0x74>
80004010:	fdc42783          	lw	a5,-36(s0)
80004014:	fff78793          	addi	a5,a5,-1
80004018:	fcf42e23          	sw	a5,-36(s0)
8000401c:	fdc42783          	lw	a5,-36(s0)
80004020:	00078023          	sb	zero,0(a5)
80004024:	02c0006f          	j	80004050 <strncat+0x9c>
80004028:	fd842703          	lw	a4,-40(s0)
8000402c:	00170793          	addi	a5,a4,1
80004030:	fcf42c23          	sw	a5,-40(s0)
80004034:	fdc42783          	lw	a5,-36(s0)
80004038:	00178693          	addi	a3,a5,1
8000403c:	fcd42e23          	sw	a3,-36(s0)
80004040:	00074703          	lbu	a4,0(a4)
80004044:	00e78023          	sb	a4,0(a5)
80004048:	0007c783          	lbu	a5,0(a5)
8000404c:	fa0798e3          	bnez	a5,80003ffc <strncat+0x48>
80004050:	fec42783          	lw	a5,-20(s0)
80004054:	00078513          	mv	a0,a5
80004058:	02c12403          	lw	s0,44(sp)
8000405c:	03010113          	addi	sp,sp,48
80004060:	00008067          	ret

80004064 <strstr>:
80004064:	fd010113          	addi	sp,sp,-48
80004068:	02812623          	sw	s0,44(sp)
8000406c:	03010413          	addi	s0,sp,48
80004070:	fca42e23          	sw	a0,-36(s0)
80004074:	fcb42c23          	sw	a1,-40(s0)
80004078:	0980006f          	j	80004110 <strstr+0xac>
8000407c:	fdc42783          	lw	a5,-36(s0)
80004080:	0007c703          	lbu	a4,0(a5)
80004084:	fd842783          	lw	a5,-40(s0)
80004088:	0007c783          	lbu	a5,0(a5)
8000408c:	06f71c63          	bne	a4,a5,80004104 <strstr+0xa0>
80004090:	fdc42783          	lw	a5,-36(s0)
80004094:	fef42623          	sw	a5,-20(s0)
80004098:	fd842783          	lw	a5,-40(s0)
8000409c:	fef42423          	sw	a5,-24(s0)
800040a0:	0300006f          	j	800040d0 <strstr+0x6c>
800040a4:	fec42783          	lw	a5,-20(s0)
800040a8:	0007c703          	lbu	a4,0(a5)
800040ac:	fe842783          	lw	a5,-24(s0)
800040b0:	0007c783          	lbu	a5,0(a5)
800040b4:	02f71c63          	bne	a4,a5,800040ec <strstr+0x88>
800040b8:	fec42783          	lw	a5,-20(s0)
800040bc:	00178793          	addi	a5,a5,1
800040c0:	fef42623          	sw	a5,-20(s0)
800040c4:	fe842783          	lw	a5,-24(s0)
800040c8:	00178793          	addi	a5,a5,1
800040cc:	fef42423          	sw	a5,-24(s0)
800040d0:	fec42783          	lw	a5,-20(s0)
800040d4:	0007c783          	lbu	a5,0(a5)
800040d8:	00078c63          	beqz	a5,800040f0 <strstr+0x8c>
800040dc:	fe842783          	lw	a5,-24(s0)
800040e0:	0007c783          	lbu	a5,0(a5)
800040e4:	fc0790e3          	bnez	a5,800040a4 <strstr+0x40>
800040e8:	0080006f          	j	800040f0 <strstr+0x8c>
800040ec:	00000013          	nop
800040f0:	fe842783          	lw	a5,-24(s0)
800040f4:	0007c783          	lbu	a5,0(a5)
800040f8:	00079663          	bnez	a5,80004104 <strstr+0xa0>
800040fc:	fdc42783          	lw	a5,-36(s0)
80004100:	0200006f          	j	80004120 <strstr+0xbc>
80004104:	fdc42783          	lw	a5,-36(s0)
80004108:	00178793          	addi	a5,a5,1
8000410c:	fcf42e23          	sw	a5,-36(s0)
80004110:	fdc42783          	lw	a5,-36(s0)
80004114:	0007c783          	lbu	a5,0(a5)
80004118:	f60792e3          	bnez	a5,8000407c <strstr+0x18>
8000411c:	00000793          	li	a5,0
80004120:	00078513          	mv	a0,a5
80004124:	02c12403          	lw	s0,44(sp)
80004128:	03010113          	addi	sp,sp,48
8000412c:	00008067          	ret

80004130 <strcpy>:
80004130:	fe010113          	addi	sp,sp,-32
80004134:	00812e23          	sw	s0,28(sp)
80004138:	02010413          	addi	s0,sp,32
8000413c:	fea42623          	sw	a0,-20(s0)
80004140:	feb42423          	sw	a1,-24(s0)
80004144:	00000013          	nop
80004148:	fe842703          	lw	a4,-24(s0)
8000414c:	00170793          	addi	a5,a4,1
80004150:	fef42423          	sw	a5,-24(s0)
80004154:	fec42783          	lw	a5,-20(s0)
80004158:	00178693          	addi	a3,a5,1
8000415c:	fed42623          	sw	a3,-20(s0)
80004160:	00074703          	lbu	a4,0(a4)
80004164:	00e78023          	sb	a4,0(a5)
80004168:	0007c783          	lbu	a5,0(a5)
8000416c:	fc079ee3          	bnez	a5,80004148 <strcpy+0x18>
80004170:	00000793          	li	a5,0
80004174:	00078513          	mv	a0,a5
80004178:	01c12403          	lw	s0,28(sp)
8000417c:	02010113          	addi	sp,sp,32
80004180:	00008067          	ret

80004184 <strspn>:
80004184:	fd010113          	addi	sp,sp,-48
80004188:	02812623          	sw	s0,44(sp)
8000418c:	03010413          	addi	s0,sp,48
80004190:	fca42e23          	sw	a0,-36(s0)
80004194:	fcb42c23          	sw	a1,-40(s0)
80004198:	fdc42783          	lw	a5,-36(s0)
8000419c:	fef42423          	sw	a5,-24(s0)
800041a0:	05c0006f          	j	800041fc <strspn+0x78>
800041a4:	fd842783          	lw	a5,-40(s0)
800041a8:	fef42623          	sw	a5,-20(s0)
800041ac:	0240006f          	j	800041d0 <strspn+0x4c>
800041b0:	fdc42783          	lw	a5,-36(s0)
800041b4:	0007c703          	lbu	a4,0(a5)
800041b8:	fec42783          	lw	a5,-20(s0)
800041bc:	0007c783          	lbu	a5,0(a5)
800041c0:	02f70063          	beq	a4,a5,800041e0 <strspn+0x5c>
800041c4:	fec42783          	lw	a5,-20(s0)
800041c8:	00178793          	addi	a5,a5,1
800041cc:	fef42623          	sw	a5,-20(s0)
800041d0:	fec42783          	lw	a5,-20(s0)
800041d4:	0007c783          	lbu	a5,0(a5)
800041d8:	fc079ce3          	bnez	a5,800041b0 <strspn+0x2c>
800041dc:	0080006f          	j	800041e4 <strspn+0x60>
800041e0:	00000013          	nop
800041e4:	fec42783          	lw	a5,-20(s0)
800041e8:	0007c783          	lbu	a5,0(a5)
800041ec:	02078063          	beqz	a5,8000420c <strspn+0x88>
800041f0:	fdc42783          	lw	a5,-36(s0)
800041f4:	00178793          	addi	a5,a5,1
800041f8:	fcf42e23          	sw	a5,-36(s0)
800041fc:	fdc42783          	lw	a5,-36(s0)
80004200:	0007c783          	lbu	a5,0(a5)
80004204:	fa0790e3          	bnez	a5,800041a4 <strspn+0x20>
80004208:	0080006f          	j	80004210 <strspn+0x8c>
8000420c:	00000013          	nop
80004210:	fdc42703          	lw	a4,-36(s0)
80004214:	fe842783          	lw	a5,-24(s0)
80004218:	40f707b3          	sub	a5,a4,a5
8000421c:	00078513          	mv	a0,a5
80004220:	02c12403          	lw	s0,44(sp)
80004224:	03010113          	addi	sp,sp,48
80004228:	00008067          	ret

8000422c <strcat>:
8000422c:	fd010113          	addi	sp,sp,-48
80004230:	02112623          	sw	ra,44(sp)
80004234:	02812423          	sw	s0,40(sp)
80004238:	03010413          	addi	s0,sp,48
8000423c:	fca42e23          	sw	a0,-36(s0)
80004240:	fcb42c23          	sw	a1,-40(s0)
80004244:	fdc42503          	lw	a0,-36(s0)
80004248:	9f5ff0ef          	jal	80003c3c <strlen>
8000424c:	fea42623          	sw	a0,-20(s0)
80004250:	fec42783          	lw	a5,-20(s0)
80004254:	fdc42703          	lw	a4,-36(s0)
80004258:	00f707b3          	add	a5,a4,a5
8000425c:	fd842583          	lw	a1,-40(s0)
80004260:	00078513          	mv	a0,a5
80004264:	ecdff0ef          	jal	80004130 <strcpy>
80004268:	fdc42783          	lw	a5,-36(s0)
8000426c:	00078513          	mv	a0,a5
80004270:	02c12083          	lw	ra,44(sp)
80004274:	02812403          	lw	s0,40(sp)
80004278:	03010113          	addi	sp,sp,48
8000427c:	00008067          	ret

80004280 <strcspn>:
80004280:	fd010113          	addi	sp,sp,-48
80004284:	02812623          	sw	s0,44(sp)
80004288:	02912423          	sw	s1,40(sp)
8000428c:	03212223          	sw	s2,36(sp)
80004290:	03312023          	sw	s3,32(sp)
80004294:	01412e23          	sw	s4,28(sp)
80004298:	03010413          	addi	s0,sp,48
8000429c:	fca42e23          	sw	a0,-36(s0)
800042a0:	00058713          	mv	a4,a1
800042a4:	fdc42483          	lw	s1,-36(s0)
800042a8:	00048793          	mv	a5,s1
800042ac:	00178493          	addi	s1,a5,1
800042b0:	0007c983          	lbu	s3,0(a5)
800042b4:	00070a13          	mv	s4,a4
800042b8:	000a0793          	mv	a5,s4
800042bc:	00178a13          	addi	s4,a5,1
800042c0:	0007c903          	lbu	s2,0(a5)
800042c4:	01391a63          	bne	s2,s3,800042d8 <strcspn+0x58>
800042c8:	fff48713          	addi	a4,s1,-1
800042cc:	fdc42783          	lw	a5,-36(s0)
800042d0:	40f707b3          	sub	a5,a4,a5
800042d4:	00c0006f          	j	800042e0 <strcspn+0x60>
800042d8:	fe0910e3          	bnez	s2,800042b8 <strcspn+0x38>
800042dc:	fcdff06f          	j	800042a8 <strcspn+0x28>
800042e0:	00078513          	mv	a0,a5
800042e4:	02c12403          	lw	s0,44(sp)
800042e8:	02812483          	lw	s1,40(sp)
800042ec:	02412903          	lw	s2,36(sp)
800042f0:	02012983          	lw	s3,32(sp)
800042f4:	01c12a03          	lw	s4,28(sp)
800042f8:	03010113          	addi	sp,sp,48
800042fc:	00008067          	ret

80004300 <strnlen>:
80004300:	fd010113          	addi	sp,sp,-48
80004304:	02812623          	sw	s0,44(sp)
80004308:	03010413          	addi	s0,sp,48
8000430c:	fca42e23          	sw	a0,-36(s0)
80004310:	fcb42c23          	sw	a1,-40(s0)
80004314:	fe042623          	sw	zero,-20(s0)
80004318:	0100006f          	j	80004328 <strnlen+0x28>
8000431c:	fec42783          	lw	a5,-20(s0)
80004320:	00178793          	addi	a5,a5,1
80004324:	fef42623          	sw	a5,-20(s0)
80004328:	fdc42783          	lw	a5,-36(s0)
8000432c:	00178713          	addi	a4,a5,1
80004330:	fce42e23          	sw	a4,-36(s0)
80004334:	0007c783          	lbu	a5,0(a5)
80004338:	00078863          	beqz	a5,80004348 <strnlen+0x48>
8000433c:	fec42703          	lw	a4,-20(s0)
80004340:	fd842783          	lw	a5,-40(s0)
80004344:	fcf74ce3          	blt	a4,a5,8000431c <strnlen+0x1c>
80004348:	fec42783          	lw	a5,-20(s0)
8000434c:	00078513          	mv	a0,a5
80004350:	02c12403          	lw	s0,44(sp)
80004354:	03010113          	addi	sp,sp,48
80004358:	00008067          	ret

8000435c <strtok>:
8000435c:	fd010113          	addi	sp,sp,-48
80004360:	02812623          	sw	s0,44(sp)
80004364:	03010413          	addi	s0,sp,48
80004368:	fca42e23          	sw	a0,-36(s0)
8000436c:	fcb42c23          	sw	a1,-40(s0)
80004370:	fdc42783          	lw	a5,-36(s0)
80004374:	02079263          	bnez	a5,80004398 <strtok+0x3c>
80004378:	00004797          	auipc	a5,0x4
8000437c:	d5878793          	addi	a5,a5,-680 # 800080d0 <last.0>
80004380:	0007a783          	lw	a5,0(a5)
80004384:	fcf42e23          	sw	a5,-36(s0)
80004388:	fdc42783          	lw	a5,-36(s0)
8000438c:	00079663          	bnez	a5,80004398 <strtok+0x3c>
80004390:	00000793          	li	a5,0
80004394:	0f80006f          	j	8000448c <strtok+0x130>
80004398:	00000013          	nop
8000439c:	fdc42783          	lw	a5,-36(s0)
800043a0:	00178713          	addi	a4,a5,1
800043a4:	fce42e23          	sw	a4,-36(s0)
800043a8:	0007c783          	lbu	a5,0(a5)
800043ac:	fef42423          	sw	a5,-24(s0)
800043b0:	fd842783          	lw	a5,-40(s0)
800043b4:	fef42623          	sw	a5,-20(s0)
800043b8:	0140006f          	j	800043cc <strtok+0x70>
800043bc:	fe842703          	lw	a4,-24(s0)
800043c0:	fe442783          	lw	a5,-28(s0)
800043c4:	00f71463          	bne	a4,a5,800043cc <strtok+0x70>
800043c8:	fd5ff06f          	j	8000439c <strtok+0x40>
800043cc:	fec42783          	lw	a5,-20(s0)
800043d0:	00178713          	addi	a4,a5,1
800043d4:	fee42623          	sw	a4,-20(s0)
800043d8:	0007c783          	lbu	a5,0(a5)
800043dc:	fef42223          	sw	a5,-28(s0)
800043e0:	fe442783          	lw	a5,-28(s0)
800043e4:	fc079ce3          	bnez	a5,800043bc <strtok+0x60>
800043e8:	fe842783          	lw	a5,-24(s0)
800043ec:	00079c63          	bnez	a5,80004404 <strtok+0xa8>
800043f0:	00004797          	auipc	a5,0x4
800043f4:	ce078793          	addi	a5,a5,-800 # 800080d0 <last.0>
800043f8:	0007a023          	sw	zero,0(a5)
800043fc:	00000793          	li	a5,0
80004400:	08c0006f          	j	8000448c <strtok+0x130>
80004404:	fdc42783          	lw	a5,-36(s0)
80004408:	fff78793          	addi	a5,a5,-1
8000440c:	fef42023          	sw	a5,-32(s0)
80004410:	fdc42783          	lw	a5,-36(s0)
80004414:	00178713          	addi	a4,a5,1
80004418:	fce42e23          	sw	a4,-36(s0)
8000441c:	0007c783          	lbu	a5,0(a5)
80004420:	fef42423          	sw	a5,-24(s0)
80004424:	fd842783          	lw	a5,-40(s0)
80004428:	fef42623          	sw	a5,-20(s0)
8000442c:	fec42783          	lw	a5,-20(s0)
80004430:	00178713          	addi	a4,a5,1
80004434:	fee42623          	sw	a4,-20(s0)
80004438:	0007c783          	lbu	a5,0(a5)
8000443c:	fef42223          	sw	a5,-28(s0)
80004440:	fe442703          	lw	a4,-28(s0)
80004444:	fe842783          	lw	a5,-24(s0)
80004448:	02f71c63          	bne	a4,a5,80004480 <strtok+0x124>
8000444c:	fe842783          	lw	a5,-24(s0)
80004450:	00079663          	bnez	a5,8000445c <strtok+0x100>
80004454:	fc042e23          	sw	zero,-36(s0)
80004458:	0100006f          	j	80004468 <strtok+0x10c>
8000445c:	fdc42783          	lw	a5,-36(s0)
80004460:	fff78793          	addi	a5,a5,-1
80004464:	00078023          	sb	zero,0(a5)
80004468:	00004797          	auipc	a5,0x4
8000446c:	c6878793          	addi	a5,a5,-920 # 800080d0 <last.0>
80004470:	fdc42703          	lw	a4,-36(s0)
80004474:	00e7a023          	sw	a4,0(a5)
80004478:	fe042783          	lw	a5,-32(s0)
8000447c:	0100006f          	j	8000448c <strtok+0x130>
80004480:	fe442783          	lw	a5,-28(s0)
80004484:	fa0794e3          	bnez	a5,8000442c <strtok+0xd0>
80004488:	f89ff06f          	j	80004410 <strtok+0xb4>
8000448c:	00078513          	mv	a0,a5
80004490:	02c12403          	lw	s0,44(sp)
80004494:	03010113          	addi	sp,sp,48
80004498:	00008067          	ret

8000449c <strrchr>:
8000449c:	fd010113          	addi	sp,sp,-48
800044a0:	02812623          	sw	s0,44(sp)
800044a4:	03010413          	addi	s0,sp,48
800044a8:	fca42e23          	sw	a0,-36(s0)
800044ac:	fcb42c23          	sw	a1,-40(s0)
800044b0:	fe042623          	sw	zero,-20(s0)
800044b4:	02c0006f          	j	800044e0 <strrchr+0x44>
800044b8:	fdc42783          	lw	a5,-36(s0)
800044bc:	0007c703          	lbu	a4,0(a5)
800044c0:	fd842783          	lw	a5,-40(s0)
800044c4:	0ff7f793          	zext.b	a5,a5
800044c8:	00f71663          	bne	a4,a5,800044d4 <strrchr+0x38>
800044cc:	fdc42783          	lw	a5,-36(s0)
800044d0:	fef42623          	sw	a5,-20(s0)
800044d4:	fdc42783          	lw	a5,-36(s0)
800044d8:	00178793          	addi	a5,a5,1
800044dc:	fcf42e23          	sw	a5,-36(s0)
800044e0:	fdc42783          	lw	a5,-36(s0)
800044e4:	0007c783          	lbu	a5,0(a5)
800044e8:	fc0798e3          	bnez	a5,800044b8 <strrchr+0x1c>
800044ec:	fd842783          	lw	a5,-40(s0)
800044f0:	0ff7f713          	zext.b	a4,a5
800044f4:	fdc42783          	lw	a5,-36(s0)
800044f8:	0007c783          	lbu	a5,0(a5)
800044fc:	00f71663          	bne	a4,a5,80004508 <strrchr+0x6c>
80004500:	fdc42783          	lw	a5,-36(s0)
80004504:	0080006f          	j	8000450c <strrchr+0x70>
80004508:	fec42783          	lw	a5,-20(s0)
8000450c:	00078513          	mv	a0,a5
80004510:	02c12403          	lw	s0,44(sp)
80004514:	03010113          	addi	sp,sp,48
80004518:	00008067          	ret

8000451c <clkhandler>:
8000451c:	ff010113          	addi	sp,sp,-16
80004520:	00112623          	sw	ra,12(sp)
80004524:	00812423          	sw	s0,8(sp)
80004528:	01010413          	addi	s0,sp,16
8000452c:	00002537          	lui	a0,0x2
80004530:	71050513          	addi	a0,a0,1808 # 2710 <__stack_size+0x1710>
80004534:	00000593          	li	a1,0
80004538:	031010ef          	jal	80005d68 <clkupdate>
8000453c:	00004797          	auipc	a5,0x4
80004540:	07478793          	addi	a5,a5,116 # 800085b0 <count1000>
80004544:	0007a783          	lw	a5,0(a5)
80004548:	00178713          	addi	a4,a5,1
8000454c:	00004797          	auipc	a5,0x4
80004550:	06478793          	addi	a5,a5,100 # 800085b0 <count1000>
80004554:	00e7a023          	sw	a4,0(a5)
80004558:	00004797          	auipc	a5,0x4
8000455c:	05878793          	addi	a5,a5,88 # 800085b0 <count1000>
80004560:	0007a703          	lw	a4,0(a5)
80004564:	3e700793          	li	a5,999
80004568:	02e7f663          	bgeu	a5,a4,80004594 <clkhandler+0x78>
8000456c:	00004797          	auipc	a5,0x4
80004570:	04078793          	addi	a5,a5,64 # 800085ac <clktime>
80004574:	0007a783          	lw	a5,0(a5)
80004578:	00178713          	addi	a4,a5,1
8000457c:	00004797          	auipc	a5,0x4
80004580:	03078793          	addi	a5,a5,48 # 800085ac <clktime>
80004584:	00e7a023          	sw	a4,0(a5)
80004588:	00004797          	auipc	a5,0x4
8000458c:	02878793          	addi	a5,a5,40 # 800085b0 <count1000>
80004590:	0007a023          	sw	zero,0(a5)
80004594:	00004797          	auipc	a5,0x4
80004598:	02078793          	addi	a5,a5,32 # 800085b4 <sleepq>
8000459c:	00079783          	lh	a5,0(a5)
800045a0:	00004717          	auipc	a4,0x4
800045a4:	ef870713          	addi	a4,a4,-264 # 80008498 <queuetab>
800045a8:	00379793          	slli	a5,a5,0x3
800045ac:	00f707b3          	add	a5,a4,a5
800045b0:	00479703          	lh	a4,4(a5)
800045b4:	00900793          	li	a5,9
800045b8:	06e7c863          	blt	a5,a4,80004628 <clkhandler+0x10c>
800045bc:	00004797          	auipc	a5,0x4
800045c0:	ff878793          	addi	a5,a5,-8 # 800085b4 <sleepq>
800045c4:	00079783          	lh	a5,0(a5)
800045c8:	00004717          	auipc	a4,0x4
800045cc:	ed070713          	addi	a4,a4,-304 # 80008498 <queuetab>
800045d0:	00379793          	slli	a5,a5,0x3
800045d4:	00f707b3          	add	a5,a4,a5
800045d8:	00479783          	lh	a5,4(a5)
800045dc:	00004697          	auipc	a3,0x4
800045e0:	ebc68693          	addi	a3,a3,-324 # 80008498 <queuetab>
800045e4:	00379713          	slli	a4,a5,0x3
800045e8:	00e68733          	add	a4,a3,a4
800045ec:	00072703          	lw	a4,0(a4)
800045f0:	fff70693          	addi	a3,a4,-1
800045f4:	00004617          	auipc	a2,0x4
800045f8:	ea460613          	addi	a2,a2,-348 # 80008498 <queuetab>
800045fc:	00379713          	slli	a4,a5,0x3
80004600:	00e60733          	add	a4,a2,a4
80004604:	00d72023          	sw	a3,0(a4)
80004608:	00004717          	auipc	a4,0x4
8000460c:	e9070713          	addi	a4,a4,-368 # 80008498 <queuetab>
80004610:	00379793          	slli	a5,a5,0x3
80004614:	00f707b3          	add	a5,a4,a5
80004618:	0007a783          	lw	a5,0(a5)
8000461c:	04079663          	bnez	a5,80004668 <clkhandler+0x14c>
80004620:	7ac000ef          	jal	80004dcc <wakeup>
80004624:	0440006f          	j	80004668 <clkhandler+0x14c>
80004628:	00004797          	auipc	a5,0x4
8000462c:	f9078793          	addi	a5,a5,-112 # 800085b8 <preempt>
80004630:	0007a783          	lw	a5,0(a5)
80004634:	fff78713          	addi	a4,a5,-1
80004638:	00004797          	auipc	a5,0x4
8000463c:	f8078793          	addi	a5,a5,-128 # 800085b8 <preempt>
80004640:	00e7a023          	sw	a4,0(a5)
80004644:	00004797          	auipc	a5,0x4
80004648:	f7478793          	addi	a5,a5,-140 # 800085b8 <preempt>
8000464c:	0007a783          	lw	a5,0(a5)
80004650:	00079c63          	bnez	a5,80004668 <clkhandler+0x14c>
80004654:	00004797          	auipc	a5,0x4
80004658:	f6478793          	addi	a5,a5,-156 # 800085b8 <preempt>
8000465c:	00a00713          	li	a4,10
80004660:	00e7a023          	sw	a4,0(a5)
80004664:	6fd000ef          	jal	80005560 <resched>
80004668:	00000013          	nop
8000466c:	00c12083          	lw	ra,12(sp)
80004670:	00812403          	lw	s0,8(sp)
80004674:	01010113          	addi	sp,sp,16
80004678:	00008067          	ret

8000467c <clkinit>:
8000467c:	ff010113          	addi	sp,sp,-16
80004680:	00112623          	sw	ra,12(sp)
80004684:	00812423          	sw	s0,8(sp)
80004688:	01010413          	addi	s0,sp,16
8000468c:	0c5020ef          	jal	80006f50 <newqueue>
80004690:	00050793          	mv	a5,a0
80004694:	00078713          	mv	a4,a5
80004698:	00004797          	auipc	a5,0x4
8000469c:	f1c78793          	addi	a5,a5,-228 # 800085b4 <sleepq>
800046a0:	00e79023          	sh	a4,0(a5)
800046a4:	00004797          	auipc	a5,0x4
800046a8:	f1478793          	addi	a5,a5,-236 # 800085b8 <preempt>
800046ac:	00a00713          	li	a4,10
800046b0:	00e7a023          	sw	a4,0(a5)
800046b4:	00004797          	auipc	a5,0x4
800046b8:	ef878793          	addi	a5,a5,-264 # 800085ac <clktime>
800046bc:	0007a023          	sw	zero,0(a5)
800046c0:	00004797          	auipc	a5,0x4
800046c4:	ef078793          	addi	a5,a5,-272 # 800085b0 <count1000>
800046c8:	0007a023          	sw	zero,0(a5)
800046cc:	00002537          	lui	a0,0x2
800046d0:	71050513          	addi	a0,a0,1808 # 2710 <__stack_size+0x1710>
800046d4:	00000593          	li	a1,0
800046d8:	60c010ef          	jal	80005ce4 <init_timer>
800046dc:	00000013          	nop
800046e0:	00c12083          	lw	ra,12(sp)
800046e4:	00812403          	lw	s0,8(sp)
800046e8:	01010113          	addi	sp,sp,16
800046ec:	00008067          	ret

800046f0 <create>:
800046f0:	fa010113          	addi	sp,sp,-96
800046f4:	04112623          	sw	ra,76(sp)
800046f8:	04812423          	sw	s0,72(sp)
800046fc:	05010413          	addi	s0,sp,80
80004700:	fca42623          	sw	a0,-52(s0)
80004704:	fcb42423          	sw	a1,-56(s0)
80004708:	fcd42023          	sw	a3,-64(s0)
8000470c:	fae42e23          	sw	a4,-68(s0)
80004710:	00f42223          	sw	a5,4(s0)
80004714:	01042423          	sw	a6,8(s0)
80004718:	01142623          	sw	a7,12(s0)
8000471c:	00060793          	mv	a5,a2
80004720:	fcf41323          	sh	a5,-58(s0)
80004724:	a7dfb0ef          	jal	800001a0 <disable>
80004728:	fea42423          	sw	a0,-24(s0)
8000472c:	fc842703          	lw	a4,-56(s0)
80004730:	18f00793          	li	a5,399
80004734:	00e7e663          	bltu	a5,a4,80004740 <create+0x50>
80004738:	19000793          	li	a5,400
8000473c:	fcf42423          	sw	a5,-56(s0)
80004740:	fc842783          	lw	a5,-56(s0)
80004744:	00378793          	addi	a5,a5,3
80004748:	ffc7f793          	andi	a5,a5,-4
8000474c:	fcf42423          	sw	a5,-56(s0)
80004750:	fc842783          	lw	a5,-56(s0)
80004754:	00378793          	addi	a5,a5,3
80004758:	ffc7f793          	andi	a5,a5,-4
8000475c:	00078513          	mv	a0,a5
80004760:	b88fe0ef          	jal	80002ae8 <malloc>
80004764:	fea42223          	sw	a0,-28(s0)
80004768:	fe442703          	lw	a4,-28(s0)
8000476c:	fff00793          	li	a5,-1
80004770:	02f70063          	beq	a4,a5,80004790 <create+0xa0>
80004774:	1a4000ef          	jal	80004918 <newpid>
80004778:	fea42023          	sw	a0,-32(s0)
8000477c:	fe042703          	lw	a4,-32(s0)
80004780:	fff00793          	li	a5,-1
80004784:	00f70663          	beq	a4,a5,80004790 <create+0xa0>
80004788:	fc641783          	lh	a5,-58(s0)
8000478c:	02f04263          	bgtz	a5,800047b0 <create+0xc0>
80004790:	fc042583          	lw	a1,-64(s0)
80004794:	00003517          	auipc	a0,0x3
80004798:	62850513          	addi	a0,a0,1576 # 80007dbc <_ctype_+0x2dc>
8000479c:	6a8010ef          	jal	80005e44 <kprintf>
800047a0:	fe842503          	lw	a0,-24(s0)
800047a4:	a0dfb0ef          	jal	800001b0 <restore>
800047a8:	fff00793          	li	a5,-1
800047ac:	1580006f          	j	80004904 <create+0x214>
800047b0:	00004797          	auipc	a5,0x4
800047b4:	e2878793          	addi	a5,a5,-472 # 800085d8 <prcount>
800047b8:	0007a783          	lw	a5,0(a5)
800047bc:	00178713          	addi	a4,a5,1
800047c0:	00004797          	auipc	a5,0x4
800047c4:	e1878793          	addi	a5,a5,-488 # 800085d8 <prcount>
800047c8:	00e7a023          	sw	a4,0(a5)
800047cc:	fe042703          	lw	a4,-32(s0)
800047d0:	05400793          	li	a5,84
800047d4:	02f70733          	mul	a4,a4,a5
800047d8:	00004797          	auipc	a5,0x4
800047dc:	90078793          	addi	a5,a5,-1792 # 800080d8 <proctab>
800047e0:	00f707b3          	add	a5,a4,a5
800047e4:	fcf42e23          	sw	a5,-36(s0)
800047e8:	fdc42783          	lw	a5,-36(s0)
800047ec:	02078c23          	sb	zero,56(a5)
800047f0:	fdc42783          	lw	a5,-36(s0)
800047f4:	00500713          	li	a4,5
800047f8:	00e79023          	sh	a4,0(a5)
800047fc:	fdc42783          	lw	a5,-36(s0)
80004800:	fc645703          	lhu	a4,-58(s0)
80004804:	00e79123          	sh	a4,2(a5)
80004808:	fdc42783          	lw	a5,-36(s0)
8000480c:	fe442703          	lw	a4,-28(s0)
80004810:	00e7a423          	sw	a4,8(a5)
80004814:	fdc42783          	lw	a5,-36(s0)
80004818:	fc842703          	lw	a4,-56(s0)
8000481c:	00e7a623          	sw	a4,12(a5)
80004820:	fdc42783          	lw	a5,-36(s0)
80004824:	020781a3          	sb	zero,35(a5)
80004828:	fe042623          	sw	zero,-20(s0)
8000482c:	0100006f          	j	8000483c <create+0x14c>
80004830:	fec42783          	lw	a5,-20(s0)
80004834:	00178793          	addi	a5,a5,1
80004838:	fef42623          	sw	a5,-20(s0)
8000483c:	fec42703          	lw	a4,-20(s0)
80004840:	01200793          	li	a5,18
80004844:	02e7cc63          	blt	a5,a4,8000487c <create+0x18c>
80004848:	fec42783          	lw	a5,-20(s0)
8000484c:	fc042703          	lw	a4,-64(s0)
80004850:	00f707b3          	add	a5,a4,a5
80004854:	0007c703          	lbu	a4,0(a5)
80004858:	fdc42683          	lw	a3,-36(s0)
8000485c:	fec42783          	lw	a5,-20(s0)
80004860:	00f687b3          	add	a5,a3,a5
80004864:	00e78823          	sb	a4,16(a5)
80004868:	fdc42703          	lw	a4,-36(s0)
8000486c:	fec42783          	lw	a5,-20(s0)
80004870:	00f707b3          	add	a5,a4,a5
80004874:	0107c783          	lbu	a5,16(a5)
80004878:	fa079ce3          	bnez	a5,80004830 <create+0x140>
8000487c:	fdc42783          	lw	a5,-36(s0)
80004880:	fff00713          	li	a4,-1
80004884:	02e7a223          	sw	a4,36(a5)
80004888:	154000ef          	jal	800049dc <getpid>
8000488c:	00050713          	mv	a4,a0
80004890:	fdc42783          	lw	a5,-36(s0)
80004894:	02e7a423          	sw	a4,40(a5)
80004898:	fdc42783          	lw	a5,-36(s0)
8000489c:	02078823          	sb	zero,48(a5)
800048a0:	fdc42783          	lw	a5,-36(s0)
800048a4:	02079923          	sh	zero,50(a5)
800048a8:	fdc42783          	lw	a5,-36(s0)
800048ac:	02079a23          	sh	zero,52(a5)
800048b0:	fdc42783          	lw	a5,-36(s0)
800048b4:	02079b23          	sh	zero,54(a5)
800048b8:	01040793          	addi	a5,s0,16
800048bc:	faf42c23          	sw	a5,-72(s0)
800048c0:	fb842783          	lw	a5,-72(s0)
800048c4:	ff478793          	addi	a5,a5,-12
800048c8:	fcf42c23          	sw	a5,-40(s0)
800048cc:	fd842783          	lw	a5,-40(s0)
800048d0:	00078713          	mv	a4,a5
800048d4:	fbc42683          	lw	a3,-68(s0)
800048d8:	00000617          	auipc	a2,0x0
800048dc:	6c460613          	addi	a2,a2,1732 # 80004f9c <userret>
800048e0:	fcc42583          	lw	a1,-52(s0)
800048e4:	fe442503          	lw	a0,-28(s0)
800048e8:	3ad020ef          	jal	80007494 <setupStack>
800048ec:	00050713          	mv	a4,a0
800048f0:	fdc42783          	lw	a5,-36(s0)
800048f4:	00e7a223          	sw	a4,4(a5)
800048f8:	fe842503          	lw	a0,-24(s0)
800048fc:	8b5fb0ef          	jal	800001b0 <restore>
80004900:	fe042783          	lw	a5,-32(s0)
80004904:	00078513          	mv	a0,a5
80004908:	04c12083          	lw	ra,76(sp)
8000490c:	04812403          	lw	s0,72(sp)
80004910:	06010113          	addi	sp,sp,96
80004914:	00008067          	ret

80004918 <newpid>:
80004918:	fe010113          	addi	sp,sp,-32
8000491c:	00812e23          	sw	s0,28(sp)
80004920:	02010413          	addi	s0,sp,32
80004924:	fe042623          	sw	zero,-20(s0)
80004928:	0940006f          	j	800049bc <newpid+0xa4>
8000492c:	00003797          	auipc	a5,0x3
80004930:	7a878793          	addi	a5,a5,1960 # 800080d4 <nextpid.0>
80004934:	0007a703          	lw	a4,0(a5)
80004938:	00a00793          	li	a5,10
8000493c:	02f76733          	rem	a4,a4,a5
80004940:	00003797          	auipc	a5,0x3
80004944:	79478793          	addi	a5,a5,1940 # 800080d4 <nextpid.0>
80004948:	00e7a023          	sw	a4,0(a5)
8000494c:	00003797          	auipc	a5,0x3
80004950:	78878793          	addi	a5,a5,1928 # 800080d4 <nextpid.0>
80004954:	0007a683          	lw	a3,0(a5)
80004958:	00003717          	auipc	a4,0x3
8000495c:	78070713          	addi	a4,a4,1920 # 800080d8 <proctab>
80004960:	05400793          	li	a5,84
80004964:	02f687b3          	mul	a5,a3,a5
80004968:	00f707b3          	add	a5,a4,a5
8000496c:	0007d783          	lhu	a5,0(a5)
80004970:	02079263          	bnez	a5,80004994 <newpid+0x7c>
80004974:	00003797          	auipc	a5,0x3
80004978:	76078793          	addi	a5,a5,1888 # 800080d4 <nextpid.0>
8000497c:	0007a783          	lw	a5,0(a5)
80004980:	00178693          	addi	a3,a5,1
80004984:	00003717          	auipc	a4,0x3
80004988:	75070713          	addi	a4,a4,1872 # 800080d4 <nextpid.0>
8000498c:	00d72023          	sw	a3,0(a4)
80004990:	03c0006f          	j	800049cc <newpid+0xb4>
80004994:	00003797          	auipc	a5,0x3
80004998:	74078793          	addi	a5,a5,1856 # 800080d4 <nextpid.0>
8000499c:	0007a783          	lw	a5,0(a5)
800049a0:	00178713          	addi	a4,a5,1
800049a4:	00003797          	auipc	a5,0x3
800049a8:	73078793          	addi	a5,a5,1840 # 800080d4 <nextpid.0>
800049ac:	00e7a023          	sw	a4,0(a5)
800049b0:	fec42783          	lw	a5,-20(s0)
800049b4:	00178793          	addi	a5,a5,1
800049b8:	fef42623          	sw	a5,-20(s0)
800049bc:	fec42703          	lw	a4,-20(s0)
800049c0:	00900793          	li	a5,9
800049c4:	f6e7f4e3          	bgeu	a5,a4,8000492c <newpid+0x14>
800049c8:	fff00793          	li	a5,-1
800049cc:	00078513          	mv	a0,a5
800049d0:	01c12403          	lw	s0,28(sp)
800049d4:	02010113          	addi	sp,sp,32
800049d8:	00008067          	ret

800049dc <getpid>:
800049dc:	ff010113          	addi	sp,sp,-16
800049e0:	00812623          	sw	s0,12(sp)
800049e4:	01010413          	addi	s0,sp,16
800049e8:	00004797          	auipc	a5,0x4
800049ec:	bf478793          	addi	a5,a5,-1036 # 800085dc <currpid>
800049f0:	0007a783          	lw	a5,0(a5)
800049f4:	00078513          	mv	a0,a5
800049f8:	00c12403          	lw	s0,12(sp)
800049fc:	01010113          	addi	sp,sp,16
80004a00:	00008067          	ret

80004a04 <chprio>:
80004a04:	fd010113          	addi	sp,sp,-48
80004a08:	02112623          	sw	ra,44(sp)
80004a0c:	02812423          	sw	s0,40(sp)
80004a10:	03010413          	addi	s0,sp,48
80004a14:	fca42e23          	sw	a0,-36(s0)
80004a18:	00058793          	mv	a5,a1
80004a1c:	fcf41d23          	sh	a5,-38(s0)
80004a20:	f80fb0ef          	jal	800001a0 <disable>
80004a24:	fea42623          	sw	a0,-20(s0)
80004a28:	fdc42783          	lw	a5,-36(s0)
80004a2c:	0207c863          	bltz	a5,80004a5c <chprio+0x58>
80004a30:	fdc42703          	lw	a4,-36(s0)
80004a34:	00900793          	li	a5,9
80004a38:	02e7c263          	blt	a5,a4,80004a5c <chprio+0x58>
80004a3c:	00003717          	auipc	a4,0x3
80004a40:	69c70713          	addi	a4,a4,1692 # 800080d8 <proctab>
80004a44:	fdc42683          	lw	a3,-36(s0)
80004a48:	05400793          	li	a5,84
80004a4c:	02f687b3          	mul	a5,a3,a5
80004a50:	00f707b3          	add	a5,a4,a5
80004a54:	0007d783          	lhu	a5,0(a5)
80004a58:	00079a63          	bnez	a5,80004a6c <chprio+0x68>
80004a5c:	fec42503          	lw	a0,-20(s0)
80004a60:	f50fb0ef          	jal	800001b0 <restore>
80004a64:	fff00793          	li	a5,-1
80004a68:	0440006f          	j	80004aac <chprio+0xa8>
80004a6c:	fdc42703          	lw	a4,-36(s0)
80004a70:	05400793          	li	a5,84
80004a74:	02f70733          	mul	a4,a4,a5
80004a78:	00003797          	auipc	a5,0x3
80004a7c:	66078793          	addi	a5,a5,1632 # 800080d8 <proctab>
80004a80:	00f707b3          	add	a5,a4,a5
80004a84:	fef42423          	sw	a5,-24(s0)
80004a88:	fe842783          	lw	a5,-24(s0)
80004a8c:	0027d783          	lhu	a5,2(a5)
80004a90:	fef41323          	sh	a5,-26(s0)
80004a94:	fe842783          	lw	a5,-24(s0)
80004a98:	fda45703          	lhu	a4,-38(s0)
80004a9c:	00e79123          	sh	a4,2(a5)
80004aa0:	fec42503          	lw	a0,-20(s0)
80004aa4:	f0cfb0ef          	jal	800001b0 <restore>
80004aa8:	fe641783          	lh	a5,-26(s0)
80004aac:	00078513          	mv	a0,a5
80004ab0:	02c12083          	lw	ra,44(sp)
80004ab4:	02812403          	lw	s0,40(sp)
80004ab8:	03010113          	addi	sp,sp,48
80004abc:	00008067          	ret

80004ac0 <getprio>:
80004ac0:	fd010113          	addi	sp,sp,-48
80004ac4:	02112623          	sw	ra,44(sp)
80004ac8:	02812423          	sw	s0,40(sp)
80004acc:	03010413          	addi	s0,sp,48
80004ad0:	fca42e23          	sw	a0,-36(s0)
80004ad4:	eccfb0ef          	jal	800001a0 <disable>
80004ad8:	fea42623          	sw	a0,-20(s0)
80004adc:	fdc42783          	lw	a5,-36(s0)
80004ae0:	0207c863          	bltz	a5,80004b10 <getprio+0x50>
80004ae4:	fdc42703          	lw	a4,-36(s0)
80004ae8:	00900793          	li	a5,9
80004aec:	02e7c263          	blt	a5,a4,80004b10 <getprio+0x50>
80004af0:	00003717          	auipc	a4,0x3
80004af4:	5e870713          	addi	a4,a4,1512 # 800080d8 <proctab>
80004af8:	fdc42683          	lw	a3,-36(s0)
80004afc:	05400793          	li	a5,84
80004b00:	02f687b3          	mul	a5,a3,a5
80004b04:	00f707b3          	add	a5,a4,a5
80004b08:	0007d783          	lhu	a5,0(a5)
80004b0c:	00079a63          	bnez	a5,80004b20 <getprio+0x60>
80004b10:	fec42503          	lw	a0,-20(s0)
80004b14:	e9cfb0ef          	jal	800001b0 <restore>
80004b18:	fff00793          	li	a5,-1
80004b1c:	0300006f          	j	80004b4c <getprio+0x8c>
80004b20:	00003717          	auipc	a4,0x3
80004b24:	5b870713          	addi	a4,a4,1464 # 800080d8 <proctab>
80004b28:	fdc42683          	lw	a3,-36(s0)
80004b2c:	05400793          	li	a5,84
80004b30:	02f687b3          	mul	a5,a3,a5
80004b34:	00f707b3          	add	a5,a4,a5
80004b38:	00279783          	lh	a5,2(a5)
80004b3c:	fef42423          	sw	a5,-24(s0)
80004b40:	fec42503          	lw	a0,-20(s0)
80004b44:	e6cfb0ef          	jal	800001b0 <restore>
80004b48:	fe842783          	lw	a5,-24(s0)
80004b4c:	00078513          	mv	a0,a5
80004b50:	02c12083          	lw	ra,44(sp)
80004b54:	02812403          	lw	s0,40(sp)
80004b58:	03010113          	addi	sp,sp,48
80004b5c:	00008067          	ret

80004b60 <kill>:
80004b60:	fd010113          	addi	sp,sp,-48
80004b64:	02112623          	sw	ra,44(sp)
80004b68:	02812423          	sw	s0,40(sp)
80004b6c:	03010413          	addi	s0,sp,48
80004b70:	fca42e23          	sw	a0,-36(s0)
80004b74:	e2cfb0ef          	jal	800001a0 <disable>
80004b78:	fea42423          	sw	a0,-24(s0)
80004b7c:	fdc42783          	lw	a5,-36(s0)
80004b80:	0607c063          	bltz	a5,80004be0 <kill+0x80>
80004b84:	fdc42703          	lw	a4,-36(s0)
80004b88:	00900793          	li	a5,9
80004b8c:	04e7ca63          	blt	a5,a4,80004be0 <kill+0x80>
80004b90:	00003717          	auipc	a4,0x3
80004b94:	54870713          	addi	a4,a4,1352 # 800080d8 <proctab>
80004b98:	fdc42683          	lw	a3,-36(s0)
80004b9c:	05400793          	li	a5,84
80004ba0:	02f687b3          	mul	a5,a3,a5
80004ba4:	00f707b3          	add	a5,a4,a5
80004ba8:	0007d783          	lhu	a5,0(a5)
80004bac:	02078a63          	beqz	a5,80004be0 <kill+0x80>
80004bb0:	fdc42783          	lw	a5,-36(s0)
80004bb4:	02078663          	beqz	a5,80004be0 <kill+0x80>
80004bb8:	fdc42703          	lw	a4,-36(s0)
80004bbc:	05400793          	li	a5,84
80004bc0:	02f70733          	mul	a4,a4,a5
80004bc4:	00003797          	auipc	a5,0x3
80004bc8:	51478793          	addi	a5,a5,1300 # 800080d8 <proctab>
80004bcc:	00f707b3          	add	a5,a4,a5
80004bd0:	fef42223          	sw	a5,-28(s0)
80004bd4:	fe442783          	lw	a5,-28(s0)
80004bd8:	0007d783          	lhu	a5,0(a5)
80004bdc:	00079a63          	bnez	a5,80004bf0 <kill+0x90>
80004be0:	fe842503          	lw	a0,-24(s0)
80004be4:	dccfb0ef          	jal	800001b0 <restore>
80004be8:	fff00793          	li	a5,-1
80004bec:	1900006f          	j	80004d7c <kill+0x21c>
80004bf0:	00004797          	auipc	a5,0x4
80004bf4:	9e878793          	addi	a5,a5,-1560 # 800085d8 <prcount>
80004bf8:	0007a783          	lw	a5,0(a5)
80004bfc:	fff78713          	addi	a4,a5,-1
80004c00:	00004797          	auipc	a5,0x4
80004c04:	9d878793          	addi	a5,a5,-1576 # 800085d8 <prcount>
80004c08:	00e7a023          	sw	a4,0(a5)
80004c0c:	00004797          	auipc	a5,0x4
80004c10:	9cc78793          	addi	a5,a5,-1588 # 800085d8 <prcount>
80004c14:	0007a703          	lw	a4,0(a5)
80004c18:	00100793          	li	a5,1
80004c1c:	00e7c463          	blt	a5,a4,80004c24 <kill+0xc4>
80004c20:	6a1020ef          	jal	80007ac0 <xdone>
80004c24:	fe442783          	lw	a5,-28(s0)
80004c28:	0287a783          	lw	a5,40(a5)
80004c2c:	fdc42703          	lw	a4,-36(s0)
80004c30:	00070593          	mv	a1,a4
80004c34:	00078513          	mv	a0,a5
80004c38:	271010ef          	jal	800066a8 <send>
80004c3c:	fe042623          	sw	zero,-20(s0)
80004c40:	0100006f          	j	80004c50 <kill+0xf0>
80004c44:	fec42783          	lw	a5,-20(s0)
80004c48:	00178793          	addi	a5,a5,1
80004c4c:	fef42623          	sw	a5,-20(s0)
80004c50:	fec42703          	lw	a4,-20(s0)
80004c54:	00200793          	li	a5,2
80004c58:	fee7d6e3          	bge	a5,a4,80004c44 <kill+0xe4>
80004c5c:	fe442783          	lw	a5,-28(s0)
80004c60:	0087a783          	lw	a5,8(a5)
80004c64:	00078713          	mv	a4,a5
80004c68:	fe442783          	lw	a5,-28(s0)
80004c6c:	00c7a783          	lw	a5,12(a5)
80004c70:	00778793          	addi	a5,a5,7
80004c74:	ff87f793          	andi	a5,a5,-8
80004c78:	40f707b3          	sub	a5,a4,a5
80004c7c:	00478793          	addi	a5,a5,4
80004c80:	00078713          	mv	a4,a5
80004c84:	fe442783          	lw	a5,-28(s0)
80004c88:	00c7a783          	lw	a5,12(a5)
80004c8c:	00778793          	addi	a5,a5,7
80004c90:	ff87f793          	andi	a5,a5,-8
80004c94:	00078593          	mv	a1,a5
80004c98:	00070513          	mv	a0,a4
80004c9c:	2cc010ef          	jal	80005f68 <freemem>
80004ca0:	fe442783          	lw	a5,-28(s0)
80004ca4:	0387c703          	lbu	a4,56(a5)
80004ca8:	00100793          	li	a5,1
80004cac:	00f71a63          	bne	a4,a5,80004cc0 <kill+0x160>
80004cb0:	fe442783          	lw	a5,-28(s0)
80004cb4:	03c7a783          	lw	a5,60(a5)
80004cb8:	00078513          	mv	a0,a5
80004cbc:	eb1fd0ef          	jal	80002b6c <free>
80004cc0:	fe442783          	lw	a5,-28(s0)
80004cc4:	0007d783          	lhu	a5,0(a5)
80004cc8:	00700713          	li	a4,7
80004ccc:	08f76e63          	bltu	a4,a5,80004d68 <kill+0x208>
80004cd0:	00279713          	slli	a4,a5,0x2
80004cd4:	00003797          	auipc	a5,0x3
80004cd8:	0fc78793          	addi	a5,a5,252 # 80007dd0 <_ctype_+0x2f0>
80004cdc:	00f707b3          	add	a5,a4,a5
80004ce0:	0007a703          	lw	a4,0(a5)
80004ce4:	00003797          	auipc	a5,0x3
80004ce8:	0ec78793          	addi	a5,a5,236 # 80007dd0 <_ctype_+0x2f0>
80004cec:	00f707b3          	add	a5,a4,a5
80004cf0:	00078067          	jr	a5
80004cf4:	fe442783          	lw	a5,-28(s0)
80004cf8:	00079023          	sh	zero,0(a5)
80004cfc:	065000ef          	jal	80005560 <resched>
80004d00:	fdc42503          	lw	a0,-36(s0)
80004d04:	2cc000ef          	jal	80004fd0 <unsleep>
80004d08:	fe442783          	lw	a5,-28(s0)
80004d0c:	00079023          	sh	zero,0(a5)
80004d10:	0600006f          	j	80004d70 <kill+0x210>
80004d14:	fe442783          	lw	a5,-28(s0)
80004d18:	0247a703          	lw	a4,36(a5)
80004d1c:	00003697          	auipc	a3,0x3
80004d20:	70468693          	addi	a3,a3,1796 # 80008420 <semtab>
80004d24:	00070793          	mv	a5,a4
80004d28:	00179793          	slli	a5,a5,0x1
80004d2c:	00e787b3          	add	a5,a5,a4
80004d30:	00279793          	slli	a5,a5,0x2
80004d34:	00f687b3          	add	a5,a3,a5
80004d38:	0047a783          	lw	a5,4(a5)
80004d3c:	00178693          	addi	a3,a5,1
80004d40:	00003617          	auipc	a2,0x3
80004d44:	6e060613          	addi	a2,a2,1760 # 80008420 <semtab>
80004d48:	00070793          	mv	a5,a4
80004d4c:	00179793          	slli	a5,a5,0x1
80004d50:	00e787b3          	add	a5,a5,a4
80004d54:	00279793          	slli	a5,a5,0x2
80004d58:	00f607b3          	add	a5,a2,a5
80004d5c:	00d7a223          	sw	a3,4(a5)
80004d60:	fdc42503          	lw	a0,-36(s0)
80004d64:	599010ef          	jal	80006afc <getitem>
80004d68:	fe442783          	lw	a5,-28(s0)
80004d6c:	00079023          	sh	zero,0(a5)
80004d70:	fe842503          	lw	a0,-24(s0)
80004d74:	c3cfb0ef          	jal	800001b0 <restore>
80004d78:	00100793          	li	a5,1
80004d7c:	00078513          	mv	a0,a5
80004d80:	02c12083          	lw	ra,44(sp)
80004d84:	02812403          	lw	s0,40(sp)
80004d88:	03010113          	addi	sp,sp,48
80004d8c:	00008067          	ret

80004d90 <yield>:
80004d90:	fe010113          	addi	sp,sp,-32
80004d94:	00112e23          	sw	ra,28(sp)
80004d98:	00812c23          	sw	s0,24(sp)
80004d9c:	02010413          	addi	s0,sp,32
80004da0:	c00fb0ef          	jal	800001a0 <disable>
80004da4:	fea42623          	sw	a0,-20(s0)
80004da8:	7b8000ef          	jal	80005560 <resched>
80004dac:	fec42503          	lw	a0,-20(s0)
80004db0:	c00fb0ef          	jal	800001b0 <restore>
80004db4:	00100793          	li	a5,1
80004db8:	00078513          	mv	a0,a5
80004dbc:	01c12083          	lw	ra,28(sp)
80004dc0:	01812403          	lw	s0,24(sp)
80004dc4:	02010113          	addi	sp,sp,32
80004dc8:	00008067          	ret

80004dcc <wakeup>:
80004dcc:	ff010113          	addi	sp,sp,-16
80004dd0:	00112623          	sw	ra,12(sp)
80004dd4:	00812423          	sw	s0,8(sp)
80004dd8:	01010413          	addi	s0,sp,16
80004ddc:	0280006f          	j	80004e04 <wakeup+0x38>
80004de0:	00003797          	auipc	a5,0x3
80004de4:	7d478793          	addi	a5,a5,2004 # 800085b4 <sleepq>
80004de8:	00079783          	lh	a5,0(a5)
80004dec:	00078513          	mv	a0,a5
80004df0:	349010ef          	jal	80006938 <dequeue>
80004df4:	00050793          	mv	a5,a0
80004df8:	00000593          	li	a1,0
80004dfc:	00078513          	mv	a0,a5
80004e00:	119000ef          	jal	80005718 <ready>
80004e04:	00003797          	auipc	a5,0x3
80004e08:	7b078793          	addi	a5,a5,1968 # 800085b4 <sleepq>
80004e0c:	00079783          	lh	a5,0(a5)
80004e10:	00003717          	auipc	a4,0x3
80004e14:	68870713          	addi	a4,a4,1672 # 80008498 <queuetab>
80004e18:	00379793          	slli	a5,a5,0x3
80004e1c:	00f707b3          	add	a5,a4,a5
80004e20:	00479703          	lh	a4,4(a5)
80004e24:	00900793          	li	a5,9
80004e28:	02e7ce63          	blt	a5,a4,80004e64 <wakeup+0x98>
80004e2c:	00003797          	auipc	a5,0x3
80004e30:	78878793          	addi	a5,a5,1928 # 800085b4 <sleepq>
80004e34:	00079783          	lh	a5,0(a5)
80004e38:	00003717          	auipc	a4,0x3
80004e3c:	66070713          	addi	a4,a4,1632 # 80008498 <queuetab>
80004e40:	00379793          	slli	a5,a5,0x3
80004e44:	00f707b3          	add	a5,a4,a5
80004e48:	00479783          	lh	a5,4(a5)
80004e4c:	00003717          	auipc	a4,0x3
80004e50:	64c70713          	addi	a4,a4,1612 # 80008498 <queuetab>
80004e54:	00379793          	slli	a5,a5,0x3
80004e58:	00f707b3          	add	a5,a4,a5
80004e5c:	0007a783          	lw	a5,0(a5)
80004e60:	f8f050e3          	blez	a5,80004de0 <wakeup+0x14>
80004e64:	6fc000ef          	jal	80005560 <resched>
80004e68:	00000013          	nop
80004e6c:	00c12083          	lw	ra,12(sp)
80004e70:	00812403          	lw	s0,8(sp)
80004e74:	01010113          	addi	sp,sp,16
80004e78:	00008067          	ret

80004e7c <wait>:
80004e7c:	fd010113          	addi	sp,sp,-48
80004e80:	02112623          	sw	ra,44(sp)
80004e84:	02812423          	sw	s0,40(sp)
80004e88:	03010413          	addi	s0,sp,48
80004e8c:	fca42e23          	sw	a0,-36(s0)
80004e90:	b10fb0ef          	jal	800001a0 <disable>
80004e94:	fea42623          	sw	a0,-20(s0)
80004e98:	fdc42783          	lw	a5,-36(s0)
80004e9c:	0007c863          	bltz	a5,80004eac <wait+0x30>
80004ea0:	fdc42703          	lw	a4,-36(s0)
80004ea4:	00900793          	li	a5,9
80004ea8:	00e7da63          	bge	a5,a4,80004ebc <wait+0x40>
80004eac:	fec42503          	lw	a0,-20(s0)
80004eb0:	b00fb0ef          	jal	800001b0 <restore>
80004eb4:	fff00793          	li	a5,-1
80004eb8:	0d00006f          	j	80004f88 <wait+0x10c>
80004ebc:	fdc42703          	lw	a4,-36(s0)
80004ec0:	00070793          	mv	a5,a4
80004ec4:	00179793          	slli	a5,a5,0x1
80004ec8:	00e787b3          	add	a5,a5,a4
80004ecc:	00279793          	slli	a5,a5,0x2
80004ed0:	00003717          	auipc	a4,0x3
80004ed4:	55070713          	addi	a4,a4,1360 # 80008420 <semtab>
80004ed8:	00e787b3          	add	a5,a5,a4
80004edc:	fef42423          	sw	a5,-24(s0)
80004ee0:	fe842783          	lw	a5,-24(s0)
80004ee4:	0007c783          	lbu	a5,0(a5)
80004ee8:	00079a63          	bnez	a5,80004efc <wait+0x80>
80004eec:	fec42503          	lw	a0,-20(s0)
80004ef0:	ac0fb0ef          	jal	800001b0 <restore>
80004ef4:	fff00793          	li	a5,-1
80004ef8:	0900006f          	j	80004f88 <wait+0x10c>
80004efc:	fe842783          	lw	a5,-24(s0)
80004f00:	0047a783          	lw	a5,4(a5)
80004f04:	fff78713          	addi	a4,a5,-1
80004f08:	fe842783          	lw	a5,-24(s0)
80004f0c:	00e7a223          	sw	a4,4(a5)
80004f10:	fe842783          	lw	a5,-24(s0)
80004f14:	0047a783          	lw	a5,4(a5)
80004f18:	0607d263          	bgez	a5,80004f7c <wait+0x100>
80004f1c:	00003797          	auipc	a5,0x3
80004f20:	6c078793          	addi	a5,a5,1728 # 800085dc <currpid>
80004f24:	0007a703          	lw	a4,0(a5)
80004f28:	05400793          	li	a5,84
80004f2c:	02f70733          	mul	a4,a4,a5
80004f30:	00003797          	auipc	a5,0x3
80004f34:	1a878793          	addi	a5,a5,424 # 800080d8 <proctab>
80004f38:	00f707b3          	add	a5,a4,a5
80004f3c:	fef42223          	sw	a5,-28(s0)
80004f40:	fe442783          	lw	a5,-28(s0)
80004f44:	00600713          	li	a4,6
80004f48:	00e79023          	sh	a4,0(a5)
80004f4c:	fe442783          	lw	a5,-28(s0)
80004f50:	fdc42703          	lw	a4,-36(s0)
80004f54:	02e7a223          	sw	a4,36(a5)
80004f58:	00003797          	auipc	a5,0x3
80004f5c:	68478793          	addi	a5,a5,1668 # 800085dc <currpid>
80004f60:	0007a703          	lw	a4,0(a5)
80004f64:	fe842783          	lw	a5,-24(s0)
80004f68:	00879783          	lh	a5,8(a5)
80004f6c:	00078593          	mv	a1,a5
80004f70:	00070513          	mv	a0,a4
80004f74:	095010ef          	jal	80006808 <enqueue>
80004f78:	5e8000ef          	jal	80005560 <resched>
80004f7c:	fec42503          	lw	a0,-20(s0)
80004f80:	a30fb0ef          	jal	800001b0 <restore>
80004f84:	00100793          	li	a5,1
80004f88:	00078513          	mv	a0,a5
80004f8c:	02c12083          	lw	ra,44(sp)
80004f90:	02812403          	lw	s0,40(sp)
80004f94:	03010113          	addi	sp,sp,48
80004f98:	00008067          	ret

80004f9c <userret>:
80004f9c:	ff010113          	addi	sp,sp,-16
80004fa0:	00112623          	sw	ra,12(sp)
80004fa4:	00812423          	sw	s0,8(sp)
80004fa8:	01010413          	addi	s0,sp,16
80004fac:	a31ff0ef          	jal	800049dc <getpid>
80004fb0:	00050793          	mv	a5,a0
80004fb4:	00078513          	mv	a0,a5
80004fb8:	ba9ff0ef          	jal	80004b60 <kill>
80004fbc:	00000013          	nop
80004fc0:	00c12083          	lw	ra,12(sp)
80004fc4:	00812403          	lw	s0,8(sp)
80004fc8:	01010113          	addi	sp,sp,16
80004fcc:	00008067          	ret

80004fd0 <unsleep>:
80004fd0:	fd010113          	addi	sp,sp,-48
80004fd4:	02112623          	sw	ra,44(sp)
80004fd8:	02812423          	sw	s0,40(sp)
80004fdc:	03010413          	addi	s0,sp,48
80004fe0:	fca42e23          	sw	a0,-36(s0)
80004fe4:	9bcfb0ef          	jal	800001a0 <disable>
80004fe8:	fea42623          	sw	a0,-20(s0)
80004fec:	fdc42783          	lw	a5,-36(s0)
80004ff0:	0207c863          	bltz	a5,80005020 <unsleep+0x50>
80004ff4:	fdc42703          	lw	a4,-36(s0)
80004ff8:	00900793          	li	a5,9
80004ffc:	02e7c263          	blt	a5,a4,80005020 <unsleep+0x50>
80005000:	00003717          	auipc	a4,0x3
80005004:	0d870713          	addi	a4,a4,216 # 800080d8 <proctab>
80005008:	fdc42683          	lw	a3,-36(s0)
8000500c:	05400793          	li	a5,84
80005010:	02f687b3          	mul	a5,a3,a5
80005014:	00f707b3          	add	a5,a4,a5
80005018:	0007d783          	lhu	a5,0(a5)
8000501c:	00079a63          	bnez	a5,80005030 <unsleep+0x60>
80005020:	fec42503          	lw	a0,-20(s0)
80005024:	98cfb0ef          	jal	800001b0 <restore>
80005028:	fff00793          	li	a5,-1
8000502c:	0d80006f          	j	80005104 <unsleep+0x134>
80005030:	fdc42703          	lw	a4,-36(s0)
80005034:	05400793          	li	a5,84
80005038:	02f70733          	mul	a4,a4,a5
8000503c:	00003797          	auipc	a5,0x3
80005040:	09c78793          	addi	a5,a5,156 # 800080d8 <proctab>
80005044:	00f707b3          	add	a5,a4,a5
80005048:	fef42423          	sw	a5,-24(s0)
8000504c:	fe842783          	lw	a5,-24(s0)
80005050:	0007d703          	lhu	a4,0(a5)
80005054:	00400793          	li	a5,4
80005058:	02f70263          	beq	a4,a5,8000507c <unsleep+0xac>
8000505c:	fe842783          	lw	a5,-24(s0)
80005060:	0007d703          	lhu	a4,0(a5)
80005064:	00700793          	li	a5,7
80005068:	00f70a63          	beq	a4,a5,8000507c <unsleep+0xac>
8000506c:	fec42503          	lw	a0,-20(s0)
80005070:	940fb0ef          	jal	800001b0 <restore>
80005074:	fff00793          	li	a5,-1
80005078:	08c0006f          	j	80005104 <unsleep+0x134>
8000507c:	00003717          	auipc	a4,0x3
80005080:	41c70713          	addi	a4,a4,1052 # 80008498 <queuetab>
80005084:	fdc42783          	lw	a5,-36(s0)
80005088:	00379793          	slli	a5,a5,0x3
8000508c:	00f707b3          	add	a5,a4,a5
80005090:	00479783          	lh	a5,4(a5)
80005094:	fef42223          	sw	a5,-28(s0)
80005098:	fe442703          	lw	a4,-28(s0)
8000509c:	00900793          	li	a5,9
800050a0:	04e7c863          	blt	a5,a4,800050f0 <unsleep+0x120>
800050a4:	00003717          	auipc	a4,0x3
800050a8:	3f470713          	addi	a4,a4,1012 # 80008498 <queuetab>
800050ac:	fe442783          	lw	a5,-28(s0)
800050b0:	00379793          	slli	a5,a5,0x3
800050b4:	00f707b3          	add	a5,a4,a5
800050b8:	0007a703          	lw	a4,0(a5)
800050bc:	00003697          	auipc	a3,0x3
800050c0:	3dc68693          	addi	a3,a3,988 # 80008498 <queuetab>
800050c4:	fdc42783          	lw	a5,-36(s0)
800050c8:	00379793          	slli	a5,a5,0x3
800050cc:	00f687b3          	add	a5,a3,a5
800050d0:	0007a783          	lw	a5,0(a5)
800050d4:	00f70733          	add	a4,a4,a5
800050d8:	00003697          	auipc	a3,0x3
800050dc:	3c068693          	addi	a3,a3,960 # 80008498 <queuetab>
800050e0:	fe442783          	lw	a5,-28(s0)
800050e4:	00379793          	slli	a5,a5,0x3
800050e8:	00f687b3          	add	a5,a3,a5
800050ec:	00e7a023          	sw	a4,0(a5)
800050f0:	fdc42503          	lw	a0,-36(s0)
800050f4:	209010ef          	jal	80006afc <getitem>
800050f8:	fec42503          	lw	a0,-20(s0)
800050fc:	8b4fb0ef          	jal	800001b0 <restore>
80005100:	00100793          	li	a5,1
80005104:	00078513          	mv	a0,a5
80005108:	02c12083          	lw	ra,44(sp)
8000510c:	02812403          	lw	s0,40(sp)
80005110:	03010113          	addi	sp,sp,48
80005114:	00008067          	ret

80005118 <suspend>:
80005118:	fd010113          	addi	sp,sp,-48
8000511c:	02112623          	sw	ra,44(sp)
80005120:	02812423          	sw	s0,40(sp)
80005124:	03010413          	addi	s0,sp,48
80005128:	fca42e23          	sw	a0,-36(s0)
8000512c:	874fb0ef          	jal	800001a0 <disable>
80005130:	fea42623          	sw	a0,-20(s0)
80005134:	fdc42783          	lw	a5,-36(s0)
80005138:	0207cc63          	bltz	a5,80005170 <suspend+0x58>
8000513c:	fdc42703          	lw	a4,-36(s0)
80005140:	00900793          	li	a5,9
80005144:	02e7c663          	blt	a5,a4,80005170 <suspend+0x58>
80005148:	00003717          	auipc	a4,0x3
8000514c:	f9070713          	addi	a4,a4,-112 # 800080d8 <proctab>
80005150:	fdc42683          	lw	a3,-36(s0)
80005154:	05400793          	li	a5,84
80005158:	02f687b3          	mul	a5,a3,a5
8000515c:	00f707b3          	add	a5,a4,a5
80005160:	0007d783          	lhu	a5,0(a5)
80005164:	00078663          	beqz	a5,80005170 <suspend+0x58>
80005168:	fdc42783          	lw	a5,-36(s0)
8000516c:	00079a63          	bnez	a5,80005180 <suspend+0x68>
80005170:	fec42503          	lw	a0,-20(s0)
80005174:	83cfb0ef          	jal	800001b0 <restore>
80005178:	fff00793          	li	a5,-1
8000517c:	0a00006f          	j	8000521c <suspend+0x104>
80005180:	fdc42703          	lw	a4,-36(s0)
80005184:	05400793          	li	a5,84
80005188:	02f70733          	mul	a4,a4,a5
8000518c:	00003797          	auipc	a5,0x3
80005190:	f4c78793          	addi	a5,a5,-180 # 800080d8 <proctab>
80005194:	00f707b3          	add	a5,a4,a5
80005198:	fef42423          	sw	a5,-24(s0)
8000519c:	fe842783          	lw	a5,-24(s0)
800051a0:	0007d703          	lhu	a4,0(a5)
800051a4:	00100793          	li	a5,1
800051a8:	02f70263          	beq	a4,a5,800051cc <suspend+0xb4>
800051ac:	fe842783          	lw	a5,-24(s0)
800051b0:	0007d703          	lhu	a4,0(a5)
800051b4:	00200793          	li	a5,2
800051b8:	00f70a63          	beq	a4,a5,800051cc <suspend+0xb4>
800051bc:	fec42503          	lw	a0,-20(s0)
800051c0:	ff1fa0ef          	jal	800001b0 <restore>
800051c4:	fff00793          	li	a5,-1
800051c8:	0540006f          	j	8000521c <suspend+0x104>
800051cc:	fe842783          	lw	a5,-24(s0)
800051d0:	0007d703          	lhu	a4,0(a5)
800051d4:	00200793          	li	a5,2
800051d8:	00f71e63          	bne	a4,a5,800051f4 <suspend+0xdc>
800051dc:	fdc42503          	lw	a0,-36(s0)
800051e0:	11d010ef          	jal	80006afc <getitem>
800051e4:	fe842783          	lw	a5,-24(s0)
800051e8:	00500713          	li	a4,5
800051ec:	00e79023          	sh	a4,0(a5)
800051f0:	0140006f          	j	80005204 <suspend+0xec>
800051f4:	fe842783          	lw	a5,-24(s0)
800051f8:	00500713          	li	a4,5
800051fc:	00e79023          	sh	a4,0(a5)
80005200:	360000ef          	jal	80005560 <resched>
80005204:	fe842783          	lw	a5,-24(s0)
80005208:	0027d783          	lhu	a5,2(a5)
8000520c:	fef41323          	sh	a5,-26(s0)
80005210:	fec42503          	lw	a0,-20(s0)
80005214:	f9dfa0ef          	jal	800001b0 <restore>
80005218:	fe641783          	lh	a5,-26(s0)
8000521c:	00078513          	mv	a0,a5
80005220:	02c12083          	lw	ra,44(sp)
80005224:	02812403          	lw	s0,40(sp)
80005228:	03010113          	addi	sp,sp,48
8000522c:	00008067          	ret

80005230 <sleep>:
80005230:	fe010113          	addi	sp,sp,-32
80005234:	00112e23          	sw	ra,28(sp)
80005238:	00812c23          	sw	s0,24(sp)
8000523c:	02010413          	addi	s0,sp,32
80005240:	fea42623          	sw	a0,-20(s0)
80005244:	fec42783          	lw	a5,-20(s0)
80005248:	0007ca63          	bltz	a5,8000525c <sleep+0x2c>
8000524c:	fec42703          	lw	a4,-20(s0)
80005250:	0020c7b7          	lui	a5,0x20c
80005254:	49b78793          	addi	a5,a5,1179 # 20c49b <__stack_size+0x20b49b>
80005258:	00e7d663          	bge	a5,a4,80005264 <sleep+0x34>
8000525c:	fff00793          	li	a5,-1
80005260:	01c0006f          	j	8000527c <sleep+0x4c>
80005264:	fec42703          	lw	a4,-20(s0)
80005268:	3e800793          	li	a5,1000
8000526c:	02f707b3          	mul	a5,a4,a5
80005270:	00078513          	mv	a0,a5
80005274:	01c000ef          	jal	80005290 <sleepms>
80005278:	00100793          	li	a5,1
8000527c:	00078513          	mv	a0,a5
80005280:	01c12083          	lw	ra,28(sp)
80005284:	01812403          	lw	s0,24(sp)
80005288:	02010113          	addi	sp,sp,32
8000528c:	00008067          	ret

80005290 <sleepms>:
80005290:	fd010113          	addi	sp,sp,-48
80005294:	02112623          	sw	ra,44(sp)
80005298:	02812423          	sw	s0,40(sp)
8000529c:	03010413          	addi	s0,sp,48
800052a0:	fca42e23          	sw	a0,-36(s0)
800052a4:	fdc42783          	lw	a5,-36(s0)
800052a8:	0007d663          	bgez	a5,800052b4 <sleepms+0x24>
800052ac:	fff00793          	li	a5,-1
800052b0:	09c0006f          	j	8000534c <sleepms+0xbc>
800052b4:	fdc42783          	lw	a5,-36(s0)
800052b8:	00079863          	bnez	a5,800052c8 <sleepms+0x38>
800052bc:	ad5ff0ef          	jal	80004d90 <yield>
800052c0:	00100793          	li	a5,1
800052c4:	0880006f          	j	8000534c <sleepms+0xbc>
800052c8:	ed9fa0ef          	jal	800001a0 <disable>
800052cc:	fea42623          	sw	a0,-20(s0)
800052d0:	00003797          	auipc	a5,0x3
800052d4:	30c78793          	addi	a5,a5,780 # 800085dc <currpid>
800052d8:	0007a703          	lw	a4,0(a5)
800052dc:	00003797          	auipc	a5,0x3
800052e0:	2d878793          	addi	a5,a5,728 # 800085b4 <sleepq>
800052e4:	00079783          	lh	a5,0(a5)
800052e8:	fdc42603          	lw	a2,-36(s0)
800052ec:	00078593          	mv	a1,a5
800052f0:	00070513          	mv	a0,a4
800052f4:	245010ef          	jal	80006d38 <insertd>
800052f8:	00050713          	mv	a4,a0
800052fc:	fff00793          	li	a5,-1
80005300:	00f71a63          	bne	a4,a5,80005314 <sleepms+0x84>
80005304:	fec42503          	lw	a0,-20(s0)
80005308:	ea9fa0ef          	jal	800001b0 <restore>
8000530c:	fff00793          	li	a5,-1
80005310:	03c0006f          	j	8000534c <sleepms+0xbc>
80005314:	00003797          	auipc	a5,0x3
80005318:	2c878793          	addi	a5,a5,712 # 800085dc <currpid>
8000531c:	0007a683          	lw	a3,0(a5)
80005320:	00003717          	auipc	a4,0x3
80005324:	db870713          	addi	a4,a4,-584 # 800080d8 <proctab>
80005328:	05400793          	li	a5,84
8000532c:	02f687b3          	mul	a5,a3,a5
80005330:	00f707b3          	add	a5,a4,a5
80005334:	00400713          	li	a4,4
80005338:	00e79023          	sh	a4,0(a5)
8000533c:	224000ef          	jal	80005560 <resched>
80005340:	fec42503          	lw	a0,-20(s0)
80005344:	e6dfa0ef          	jal	800001b0 <restore>
80005348:	00100793          	li	a5,1
8000534c:	00078513          	mv	a0,a5
80005350:	02c12083          	lw	ra,44(sp)
80005354:	02812403          	lw	s0,40(sp)
80005358:	03010113          	addi	sp,sp,48
8000535c:	00008067          	ret

80005360 <resume>:
80005360:	fd010113          	addi	sp,sp,-48
80005364:	02112623          	sw	ra,44(sp)
80005368:	02812423          	sw	s0,40(sp)
8000536c:	03010413          	addi	s0,sp,48
80005370:	fca42e23          	sw	a0,-36(s0)
80005374:	e2dfa0ef          	jal	800001a0 <disable>
80005378:	fea42623          	sw	a0,-20(s0)
8000537c:	fdc42783          	lw	a5,-36(s0)
80005380:	0207c863          	bltz	a5,800053b0 <resume+0x50>
80005384:	fdc42703          	lw	a4,-36(s0)
80005388:	00900793          	li	a5,9
8000538c:	02e7c263          	blt	a5,a4,800053b0 <resume+0x50>
80005390:	00003717          	auipc	a4,0x3
80005394:	d4870713          	addi	a4,a4,-696 # 800080d8 <proctab>
80005398:	fdc42683          	lw	a3,-36(s0)
8000539c:	05400793          	li	a5,84
800053a0:	02f687b3          	mul	a5,a3,a5
800053a4:	00f707b3          	add	a5,a4,a5
800053a8:	0007d783          	lhu	a5,0(a5)
800053ac:	00079a63          	bnez	a5,800053c0 <resume+0x60>
800053b0:	fec42503          	lw	a0,-20(s0)
800053b4:	dfdfa0ef          	jal	800001b0 <restore>
800053b8:	fff00793          	li	a5,-1
800053bc:	0640006f          	j	80005420 <resume+0xc0>
800053c0:	fdc42703          	lw	a4,-36(s0)
800053c4:	05400793          	li	a5,84
800053c8:	02f70733          	mul	a4,a4,a5
800053cc:	00003797          	auipc	a5,0x3
800053d0:	d0c78793          	addi	a5,a5,-756 # 800080d8 <proctab>
800053d4:	00f707b3          	add	a5,a4,a5
800053d8:	fef42423          	sw	a5,-24(s0)
800053dc:	fe842783          	lw	a5,-24(s0)
800053e0:	0007d703          	lhu	a4,0(a5)
800053e4:	00500793          	li	a5,5
800053e8:	00f70a63          	beq	a4,a5,800053fc <resume+0x9c>
800053ec:	fec42503          	lw	a0,-20(s0)
800053f0:	dc1fa0ef          	jal	800001b0 <restore>
800053f4:	fff00793          	li	a5,-1
800053f8:	0280006f          	j	80005420 <resume+0xc0>
800053fc:	fe842783          	lw	a5,-24(s0)
80005400:	0027d783          	lhu	a5,2(a5)
80005404:	fef41323          	sh	a5,-26(s0)
80005408:	00100593          	li	a1,1
8000540c:	fdc42503          	lw	a0,-36(s0)
80005410:	308000ef          	jal	80005718 <ready>
80005414:	fec42503          	lw	a0,-20(s0)
80005418:	d99fa0ef          	jal	800001b0 <restore>
8000541c:	fe641783          	lh	a5,-26(s0)
80005420:	00078513          	mv	a0,a5
80005424:	02c12083          	lw	ra,44(sp)
80005428:	02812403          	lw	s0,40(sp)
8000542c:	03010113          	addi	sp,sp,48
80005430:	00008067          	ret

80005434 <save_context>:
80005434:	fe010113          	addi	sp,sp,-32
80005438:	00812e23          	sw	s0,28(sp)
8000543c:	02010413          	addi	s0,sp,32
80005440:	fea42623          	sw	a0,-20(s0)
80005444:	fec42783          	lw	a5,-20(s0)
80005448:	fa410113          	addi	sp,sp,-92
8000544c:	05112c23          	sw	a7,88(sp)
80005450:	05012a23          	sw	a6,84(sp)
80005454:	04f12823          	sw	a5,80(sp)
80005458:	04e12623          	sw	a4,76(sp)
8000545c:	04d12423          	sw	a3,72(sp)
80005460:	04c12223          	sw	a2,68(sp)
80005464:	04b12023          	sw	a1,64(sp)
80005468:	02a12e23          	sw	a0,60(sp)
8000546c:	03b12c23          	sw	s11,56(sp)
80005470:	03a12a23          	sw	s10,52(sp)
80005474:	03912823          	sw	s9,48(sp)
80005478:	03812623          	sw	s8,44(sp)
8000547c:	03712423          	sw	s7,40(sp)
80005480:	03612223          	sw	s6,36(sp)
80005484:	03512023          	sw	s5,32(sp)
80005488:	01412e23          	sw	s4,28(sp)
8000548c:	01312c23          	sw	s3,24(sp)
80005490:	01212a23          	sw	s2,20(sp)
80005494:	00912823          	sw	s1,16(sp)
80005498:	00812623          	sw	s0,12(sp)
8000549c:	300023f3          	csrr	t2,mstatus
800054a0:	00712423          	sw	t2,8(sp)
800054a4:	00112223          	sw	ra,4(sp)
800054a8:	0027a023          	sw	sp,0(a5)
800054ac:	00000013          	nop
800054b0:	01c12403          	lw	s0,28(sp)
800054b4:	02010113          	addi	sp,sp,32
800054b8:	00008067          	ret

800054bc <load_context>:
800054bc:	fe010113          	addi	sp,sp,-32
800054c0:	00812e23          	sw	s0,28(sp)
800054c4:	02010413          	addi	s0,sp,32
800054c8:	fea42623          	sw	a0,-20(s0)
800054cc:	fec42783          	lw	a5,-20(s0)
800054d0:	0007a103          	lw	sp,0(a5)
800054d4:	00012283          	lw	t0,0(sp)
800054d8:	00412083          	lw	ra,4(sp)
800054dc:	00812383          	lw	t2,8(sp)
800054e0:	00c12403          	lw	s0,12(sp)
800054e4:	01012483          	lw	s1,16(sp)
800054e8:	01412903          	lw	s2,20(sp)
800054ec:	01812983          	lw	s3,24(sp)
800054f0:	01c12a03          	lw	s4,28(sp)
800054f4:	02012a83          	lw	s5,32(sp)
800054f8:	02412b03          	lw	s6,36(sp)
800054fc:	02812b83          	lw	s7,40(sp)
80005500:	02c12c03          	lw	s8,44(sp)
80005504:	03012c83          	lw	s9,48(sp)
80005508:	03412d03          	lw	s10,52(sp)
8000550c:	03812d83          	lw	s11,56(sp)
80005510:	03c12503          	lw	a0,60(sp)
80005514:	04012583          	lw	a1,64(sp)
80005518:	04412603          	lw	a2,68(sp)
8000551c:	04812683          	lw	a3,72(sp)
80005520:	04c12703          	lw	a4,76(sp)
80005524:	05012783          	lw	a5,80(sp)
80005528:	05412803          	lw	a6,84(sp)
8000552c:	05812883          	lw	a7,88(sp)
80005530:	05c10113          	addi	sp,sp,92
80005534:	0083fe13          	andi	t3,t2,8
80005538:	000e0a63          	beqz	t3,8000554c <load_context+0x90>
8000553c:	ff73f393          	andi	t2,t2,-9
80005540:	30039073          	csrw	mstatus,t2
80005544:	34129073          	csrw	mepc,t0
80005548:	30200073          	mret
8000554c:	00028067          	jr	t0
80005550:	00000013          	nop
80005554:	01c12403          	lw	s0,28(sp)
80005558:	02010113          	addi	sp,sp,32
8000555c:	00008067          	ret

80005560 <resched>:
80005560:	fe010113          	addi	sp,sp,-32
80005564:	00112e23          	sw	ra,28(sp)
80005568:	00812c23          	sw	s0,24(sp)
8000556c:	02010413          	addi	s0,sp,32
80005570:	00003797          	auipc	a5,0x3
80005574:	05478793          	addi	a5,a5,84 # 800085c4 <resdefer>
80005578:	0007a783          	lw	a5,0(a5)
8000557c:	02f05263          	blez	a5,800055a0 <resched+0x40>
80005580:	00003797          	auipc	a5,0x3
80005584:	04478793          	addi	a5,a5,68 # 800085c4 <resdefer>
80005588:	0007a783          	lw	a5,0(a5)
8000558c:	00178713          	addi	a4,a5,1
80005590:	00003797          	auipc	a5,0x3
80005594:	03478793          	addi	a5,a5,52 # 800085c4 <resdefer>
80005598:	00e7a023          	sw	a4,0(a5)
8000559c:	16c0006f          	j	80005708 <resched+0x1a8>
800055a0:	00003797          	auipc	a5,0x3
800055a4:	03c78793          	addi	a5,a5,60 # 800085dc <currpid>
800055a8:	0007a703          	lw	a4,0(a5)
800055ac:	05400793          	li	a5,84
800055b0:	02f70733          	mul	a4,a4,a5
800055b4:	00003797          	auipc	a5,0x3
800055b8:	b2478793          	addi	a5,a5,-1244 # 800080d8 <proctab>
800055bc:	00f707b3          	add	a5,a4,a5
800055c0:	fef42623          	sw	a5,-20(s0)
800055c4:	bddfa0ef          	jal	800001a0 <disable>
800055c8:	fea42423          	sw	a0,-24(s0)
800055cc:	fec42783          	lw	a5,-20(s0)
800055d0:	0007d703          	lhu	a4,0(a5)
800055d4:	00100793          	li	a5,1
800055d8:	08f71863          	bne	a4,a5,80005668 <resched+0x108>
800055dc:	fec42783          	lw	a5,-20(s0)
800055e0:	00279783          	lh	a5,2(a5)
800055e4:	00078693          	mv	a3,a5
800055e8:	00003797          	auipc	a5,0x3
800055ec:	fe078793          	addi	a5,a5,-32 # 800085c8 <readylist>
800055f0:	00079783          	lh	a5,0(a5)
800055f4:	00003717          	auipc	a4,0x3
800055f8:	ea470713          	addi	a4,a4,-348 # 80008498 <queuetab>
800055fc:	00379793          	slli	a5,a5,0x3
80005600:	00f707b3          	add	a5,a4,a5
80005604:	00479783          	lh	a5,4(a5)
80005608:	00003717          	auipc	a4,0x3
8000560c:	e9070713          	addi	a4,a4,-368 # 80008498 <queuetab>
80005610:	00379793          	slli	a5,a5,0x3
80005614:	00f707b3          	add	a5,a4,a5
80005618:	0007a783          	lw	a5,0(a5)
8000561c:	00d7d863          	bge	a5,a3,8000562c <resched+0xcc>
80005620:	fe842503          	lw	a0,-24(s0)
80005624:	b8dfa0ef          	jal	800001b0 <restore>
80005628:	0e00006f          	j	80005708 <resched+0x1a8>
8000562c:	fec42783          	lw	a5,-20(s0)
80005630:	00200713          	li	a4,2
80005634:	00e79023          	sh	a4,0(a5)
80005638:	00003797          	auipc	a5,0x3
8000563c:	fa478793          	addi	a5,a5,-92 # 800085dc <currpid>
80005640:	0007a703          	lw	a4,0(a5)
80005644:	00003797          	auipc	a5,0x3
80005648:	f8478793          	addi	a5,a5,-124 # 800085c8 <readylist>
8000564c:	00079683          	lh	a3,0(a5)
80005650:	fec42783          	lw	a5,-20(s0)
80005654:	00279783          	lh	a5,2(a5)
80005658:	00078613          	mv	a2,a5
8000565c:	00068593          	mv	a1,a3
80005660:	00070513          	mv	a0,a4
80005664:	53c010ef          	jal	80006ba0 <insert>
80005668:	00003797          	auipc	a5,0x3
8000566c:	f6078793          	addi	a5,a5,-160 # 800085c8 <readylist>
80005670:	00079783          	lh	a5,0(a5)
80005674:	00078513          	mv	a0,a5
80005678:	2c0010ef          	jal	80006938 <dequeue>
8000567c:	00050713          	mv	a4,a0
80005680:	00003797          	auipc	a5,0x3
80005684:	f5c78793          	addi	a5,a5,-164 # 800085dc <currpid>
80005688:	00e7a023          	sw	a4,0(a5)
8000568c:	00003797          	auipc	a5,0x3
80005690:	f5078793          	addi	a5,a5,-176 # 800085dc <currpid>
80005694:	0007a703          	lw	a4,0(a5)
80005698:	05400793          	li	a5,84
8000569c:	02f70733          	mul	a4,a4,a5
800056a0:	00003797          	auipc	a5,0x3
800056a4:	a3878793          	addi	a5,a5,-1480 # 800080d8 <proctab>
800056a8:	00f707b3          	add	a5,a4,a5
800056ac:	fef42223          	sw	a5,-28(s0)
800056b0:	fe442783          	lw	a5,-28(s0)
800056b4:	00100713          	li	a4,1
800056b8:	00e79023          	sh	a4,0(a5)
800056bc:	00003797          	auipc	a5,0x3
800056c0:	efc78793          	addi	a5,a5,-260 # 800085b8 <preempt>
800056c4:	00a00713          	li	a4,10
800056c8:	00e7a023          	sw	a4,0(a5)
800056cc:	00003797          	auipc	a5,0x3
800056d0:	f1078793          	addi	a5,a5,-240 # 800085dc <currpid>
800056d4:	0007a783          	lw	a5,0(a5)
800056d8:	fef401a3          	sb	a5,-29(s0)
800056dc:	fec42783          	lw	a5,-20(s0)
800056e0:	00478713          	addi	a4,a5,4
800056e4:	fe442783          	lw	a5,-28(s0)
800056e8:	00478793          	addi	a5,a5,4
800056ec:	fe344683          	lbu	a3,-29(s0)
800056f0:	00068613          	mv	a2,a3
800056f4:	00078593          	mv	a1,a5
800056f8:	00070513          	mv	a0,a4
800056fc:	ad1fa0ef          	jal	800001cc <ctxsw>
80005700:	fe842503          	lw	a0,-24(s0)
80005704:	aadfa0ef          	jal	800001b0 <restore>
80005708:	01c12083          	lw	ra,28(sp)
8000570c:	01812403          	lw	s0,24(sp)
80005710:	02010113          	addi	sp,sp,32
80005714:	00008067          	ret

80005718 <ready>:
80005718:	fe010113          	addi	sp,sp,-32
8000571c:	00112e23          	sw	ra,28(sp)
80005720:	00812c23          	sw	s0,24(sp)
80005724:	02010413          	addi	s0,sp,32
80005728:	fea42623          	sw	a0,-20(s0)
8000572c:	00058793          	mv	a5,a1
80005730:	fef405a3          	sb	a5,-21(s0)
80005734:	fec42783          	lw	a5,-20(s0)
80005738:	0207c863          	bltz	a5,80005768 <ready+0x50>
8000573c:	fec42703          	lw	a4,-20(s0)
80005740:	00900793          	li	a5,9
80005744:	02e7c263          	blt	a5,a4,80005768 <ready+0x50>
80005748:	00003717          	auipc	a4,0x3
8000574c:	99070713          	addi	a4,a4,-1648 # 800080d8 <proctab>
80005750:	fec42683          	lw	a3,-20(s0)
80005754:	05400793          	li	a5,84
80005758:	02f687b3          	mul	a5,a3,a5
8000575c:	00f707b3          	add	a5,a4,a5
80005760:	0007d783          	lhu	a5,0(a5)
80005764:	00079663          	bnez	a5,80005770 <ready+0x58>
80005768:	fff00793          	li	a5,-1
8000576c:	0540006f          	j	800057c0 <ready+0xa8>
80005770:	fec42703          	lw	a4,-20(s0)
80005774:	05400793          	li	a5,84
80005778:	02f70733          	mul	a4,a4,a5
8000577c:	00003797          	auipc	a5,0x3
80005780:	95c78793          	addi	a5,a5,-1700 # 800080d8 <proctab>
80005784:	00f700b3          	add	ra,a4,a5
80005788:	00200793          	li	a5,2
8000578c:	00f09023          	sh	a5,0(ra)
80005790:	00003797          	auipc	a5,0x3
80005794:	e3878793          	addi	a5,a5,-456 # 800085c8 <readylist>
80005798:	00079783          	lh	a5,0(a5)
8000579c:	00209703          	lh	a4,2(ra)
800057a0:	00070613          	mv	a2,a4
800057a4:	00078593          	mv	a1,a5
800057a8:	fec42503          	lw	a0,-20(s0)
800057ac:	3f4010ef          	jal	80006ba0 <insert>
800057b0:	feb44783          	lbu	a5,-21(s0)
800057b4:	00078463          	beqz	a5,800057bc <ready+0xa4>
800057b8:	da9ff0ef          	jal	80005560 <resched>
800057bc:	00100793          	li	a5,1
800057c0:	00078513          	mv	a0,a5
800057c4:	01c12083          	lw	ra,28(sp)
800057c8:	01812403          	lw	s0,24(sp)
800057cc:	02010113          	addi	sp,sp,32
800057d0:	00008067          	ret

800057d4 <exit>:
800057d4:	ff010113          	addi	sp,sp,-16
800057d8:	00112623          	sw	ra,12(sp)
800057dc:	00812423          	sw	s0,8(sp)
800057e0:	01010413          	addi	s0,sp,16
800057e4:	9f8ff0ef          	jal	800049dc <getpid>
800057e8:	00050793          	mv	a5,a0
800057ec:	00078513          	mv	a0,a5
800057f0:	b70ff0ef          	jal	80004b60 <kill>
800057f4:	00000013          	nop
800057f8:	00c12083          	lw	ra,12(sp)
800057fc:	00812403          	lw	s0,8(sp)
80005800:	01010113          	addi	sp,sp,16
80005804:	00008067          	ret

80005808 <blink1>:
80005808:	ff010113          	addi	sp,sp,-16
8000580c:	00112623          	sw	ra,12(sp)
80005810:	00812423          	sw	s0,8(sp)
80005814:	01010413          	addi	s0,sp,16
80005818:	00002517          	auipc	a0,0x2
8000581c:	5d850513          	addi	a0,a0,1496 # 80007df0 <_ctype_+0x310>
80005820:	ca0fd0ef          	jal	80002cc0 <printf>
80005824:	ff5ff06f          	j	80005818 <blink1+0x10>

80005828 <nullprocess>:
80005828:	ff010113          	addi	sp,sp,-16
8000582c:	00112623          	sw	ra,12(sp)
80005830:	00812423          	sw	s0,8(sp)
80005834:	01010413          	addi	s0,sp,16
80005838:	00002517          	auipc	a0,0x2
8000583c:	5c050513          	addi	a0,a0,1472 # 80007df8 <_ctype_+0x318>
80005840:	604000ef          	jal	80005e44 <kprintf>
80005844:	ff5ff06f          	j	80005838 <nullprocess+0x10>

80005848 <nulluser>:
80005848:	fd010113          	addi	sp,sp,-48
8000584c:	02112623          	sw	ra,44(sp)
80005850:	02812423          	sw	s0,40(sp)
80005854:	03010413          	addi	s0,sp,48
80005858:	00003797          	auipc	a5,0x3
8000585c:	d7478793          	addi	a5,a5,-652 # 800085cc <ready_preemptive>
80005860:	0007a023          	sw	zero,0(a5)
80005864:	654000ef          	jal	80005eb8 <meminit>
80005868:	234000ef          	jal	80005a9c <sysinit>
8000586c:	00003797          	auipc	a5,0x3
80005870:	d4c78793          	addi	a5,a5,-692 # 800085b8 <preempt>
80005874:	00a00713          	li	a4,10
80005878:	00e7a023          	sw	a4,0(a5)
8000587c:	fe042423          	sw	zero,-24(s0)
80005880:	00003797          	auipc	a5,0x3
80005884:	d5078793          	addi	a5,a5,-688 # 800085d0 <memlist>
80005888:	0007a783          	lw	a5,0(a5)
8000588c:	fef42623          	sw	a5,-20(s0)
80005890:	0240006f          	j	800058b4 <nulluser+0x6c>
80005894:	fec42783          	lw	a5,-20(s0)
80005898:	0047a783          	lw	a5,4(a5)
8000589c:	fe842703          	lw	a4,-24(s0)
800058a0:	00f707b3          	add	a5,a4,a5
800058a4:	fef42423          	sw	a5,-24(s0)
800058a8:	fec42783          	lw	a5,-20(s0)
800058ac:	0007a783          	lw	a5,0(a5)
800058b0:	fef42623          	sw	a5,-20(s0)
800058b4:	fec42783          	lw	a5,-20(s0)
800058b8:	fc079ee3          	bnez	a5,80005894 <nulluser+0x4c>
800058bc:	00002617          	auipc	a2,0x2
800058c0:	54c60613          	addi	a2,a2,1356 # 80007e08 <_ctype_+0x328>
800058c4:	00002597          	auipc	a1,0x2
800058c8:	55058593          	addi	a1,a1,1360 # 80007e14 <_ctype_+0x334>
800058cc:	00002517          	auipc	a0,0x2
800058d0:	55450513          	addi	a0,a0,1364 # 80007e20 <_ctype_+0x340>
800058d4:	570000ef          	jal	80005e44 <kprintf>
800058d8:	fe842583          	lw	a1,-24(s0)
800058dc:	00002517          	auipc	a0,0x2
800058e0:	55850513          	addi	a0,a0,1368 # 80007e34 <_ctype_+0x354>
800058e4:	560000ef          	jal	80005e44 <kprintf>
800058e8:	00003797          	auipc	a5,0x3
800058ec:	ce878793          	addi	a5,a5,-792 # 800085d0 <memlist>
800058f0:	0007a783          	lw	a5,0(a5)
800058f4:	fef42623          	sw	a5,-20(s0)
800058f8:	03c0006f          	j	80005934 <nulluser+0xec>
800058fc:	fec42683          	lw	a3,-20(s0)
80005900:	fec42783          	lw	a5,-20(s0)
80005904:	0047a703          	lw	a4,4(a5)
80005908:	fec42783          	lw	a5,-20(s0)
8000590c:	00f707b3          	add	a5,a4,a5
80005910:	fff78793          	addi	a5,a5,-1
80005914:	00078613          	mv	a2,a5
80005918:	00068593          	mv	a1,a3
8000591c:	00002517          	auipc	a0,0x2
80005920:	54050513          	addi	a0,a0,1344 # 80007e5c <_ctype_+0x37c>
80005924:	520000ef          	jal	80005e44 <kprintf>
80005928:	fec42783          	lw	a5,-20(s0)
8000592c:	0007a783          	lw	a5,0(a5)
80005930:	fef42623          	sw	a5,-20(s0)
80005934:	fec42783          	lw	a5,-20(s0)
80005938:	fc0792e3          	bnez	a5,800058fc <nulluser+0xb4>
8000593c:	00002717          	auipc	a4,0x2
80005940:	6fb70713          	addi	a4,a4,1787 # 80008037 <_etext>
80005944:	ffffa797          	auipc	a5,0xffffa
80005948:	6bc78793          	addi	a5,a5,1724 # 80000000 <_start>
8000594c:	40f707b3          	sub	a5,a4,a5
80005950:	00078593          	mv	a1,a5
80005954:	00002517          	auipc	a0,0x2
80005958:	52850513          	addi	a0,a0,1320 # 80007e7c <_ctype_+0x39c>
8000595c:	4e8000ef          	jal	80005e44 <kprintf>
80005960:	ffffa717          	auipc	a4,0xffffa
80005964:	6a070713          	addi	a4,a4,1696 # 80000000 <_start>
80005968:	00002797          	auipc	a5,0x2
8000596c:	6cf78793          	addi	a5,a5,1743 # 80008037 <_etext>
80005970:	fff78793          	addi	a5,a5,-1
80005974:	00078613          	mv	a2,a5
80005978:	00070593          	mv	a1,a4
8000597c:	00002517          	auipc	a0,0x2
80005980:	4e050513          	addi	a0,a0,1248 # 80007e5c <_ctype_+0x37c>
80005984:	4c0000ef          	jal	80005e44 <kprintf>
80005988:	00003717          	auipc	a4,0x3
8000598c:	c2470713          	addi	a4,a4,-988 # 800085ac <clktime>
80005990:	00002797          	auipc	a5,0x2
80005994:	6a878793          	addi	a5,a5,1704 # 80008038 <_sctab>
80005998:	40f707b3          	sub	a5,a4,a5
8000599c:	00078593          	mv	a1,a5
800059a0:	00002517          	auipc	a0,0x2
800059a4:	4f850513          	addi	a0,a0,1272 # 80007e98 <_ctype_+0x3b8>
800059a8:	49c000ef          	jal	80005e44 <kprintf>
800059ac:	00002717          	auipc	a4,0x2
800059b0:	68c70713          	addi	a4,a4,1676 # 80008038 <_sctab>
800059b4:	00003797          	auipc	a5,0x3
800059b8:	bf878793          	addi	a5,a5,-1032 # 800085ac <clktime>
800059bc:	fff78793          	addi	a5,a5,-1
800059c0:	00078613          	mv	a2,a5
800059c4:	00070593          	mv	a1,a4
800059c8:	00002517          	auipc	a0,0x2
800059cc:	4e850513          	addi	a0,a0,1256 # 80007eb0 <_ctype_+0x3d0>
800059d0:	474000ef          	jal	80005e44 <kprintf>
800059d4:	300027f3          	csrr	a5,mstatus
800059d8:	fef42223          	sw	a5,-28(s0)
800059dc:	fe442783          	lw	a5,-28(s0)
800059e0:	0087e793          	ori	a5,a5,8
800059e4:	30079073          	csrw	mstatus,a5
800059e8:	00000713          	li	a4,0
800059ec:	00002697          	auipc	a3,0x2
800059f0:	4e468693          	addi	a3,a3,1252 # 80007ed0 <_ctype_+0x3f0>
800059f4:	00a00613          	li	a2,10
800059f8:	000017b7          	lui	a5,0x1
800059fc:	80078593          	addi	a1,a5,-2048 # 800 <__stack_size-0x800>
80005a00:	00000517          	auipc	a0,0x0
80005a04:	e2850513          	addi	a0,a0,-472 # 80005828 <nullprocess>
80005a08:	ce9fe0ef          	jal	800046f0 <create>
80005a0c:	fea42023          	sw	a0,-32(s0)
80005a10:	00000713          	li	a4,0
80005a14:	00002697          	auipc	a3,0x2
80005a18:	4cc68693          	addi	a3,a3,1228 # 80007ee0 <_ctype_+0x400>
80005a1c:	03200613          	li	a2,50
80005a20:	000017b7          	lui	a5,0x1
80005a24:	80078593          	addi	a1,a5,-2048 # 800 <__stack_size-0x800>
80005a28:	00000517          	auipc	a0,0x0
80005a2c:	de050513          	addi	a0,a0,-544 # 80005808 <blink1>
80005a30:	cc1fe0ef          	jal	800046f0 <create>
80005a34:	fca42e23          	sw	a0,-36(s0)
80005a38:	fe042703          	lw	a4,-32(s0)
80005a3c:	05400793          	li	a5,84
80005a40:	02f70733          	mul	a4,a4,a5
80005a44:	00002797          	auipc	a5,0x2
80005a48:	69478793          	addi	a5,a5,1684 # 800080d8 <proctab>
80005a4c:	00f707b3          	add	a5,a4,a5
80005a50:	fcf42c23          	sw	a5,-40(s0)
80005a54:	fdc42703          	lw	a4,-36(s0)
80005a58:	05400793          	li	a5,84
80005a5c:	02f70733          	mul	a4,a4,a5
80005a60:	00002797          	auipc	a5,0x2
80005a64:	67878793          	addi	a5,a5,1656 # 800080d8 <proctab>
80005a68:	00f707b3          	add	a5,a4,a5
80005a6c:	fcf42a23          	sw	a5,-44(s0)
80005a70:	fd842783          	lw	a5,-40(s0)
80005a74:	0047a783          	lw	a5,4(a5)
80005a78:	fcf42823          	sw	a5,-48(s0)
80005a7c:	fd042503          	lw	a0,-48(s0)
80005a80:	9b5ff0ef          	jal	80005434 <save_context>
80005a84:	fd842783          	lw	a5,-40(s0)
80005a88:	0047a783          	lw	a5,4(a5)
80005a8c:	fcf42823          	sw	a5,-48(s0)
80005a90:	fd042503          	lw	a0,-48(s0)
80005a94:	a29ff0ef          	jal	800054bc <load_context>
80005a98:	0000006f          	j	80005a98 <nulluser+0x250>

80005a9c <sysinit>:
80005a9c:	fe010113          	addi	sp,sp,-32
80005aa0:	00112e23          	sw	ra,28(sp)
80005aa4:	00812c23          	sw	s0,24(sp)
80005aa8:	02010413          	addi	s0,sp,32
80005aac:	fe042423          	sw	zero,-24(s0)
80005ab0:	01c0006f          	j	80005acc <sysinit+0x30>
80005ab4:	00002517          	auipc	a0,0x2
80005ab8:	43450513          	addi	a0,a0,1076 # 80007ee8 <_ctype_+0x408>
80005abc:	388000ef          	jal	80005e44 <kprintf>
80005ac0:	fe842783          	lw	a5,-24(s0)
80005ac4:	00178793          	addi	a5,a5,1
80005ac8:	fef42423          	sw	a5,-24(s0)
80005acc:	fe842703          	lw	a4,-24(s0)
80005ad0:	00900793          	li	a5,9
80005ad4:	fee7d0e3          	bge	a5,a4,80005ab4 <sysinit+0x18>
80005ad8:	00003797          	auipc	a5,0x3
80005adc:	b0078793          	addi	a5,a5,-1280 # 800085d8 <prcount>
80005ae0:	0007a023          	sw	zero,0(a5)
80005ae4:	00003797          	auipc	a5,0x3
80005ae8:	ad878793          	addi	a5,a5,-1320 # 800085bc <Defer>
80005aec:	0007a023          	sw	zero,0(a5)
80005af0:	fe042623          	sw	zero,-20(s0)
80005af4:	04c0006f          	j	80005b40 <sysinit+0xa4>
80005af8:	fec42703          	lw	a4,-20(s0)
80005afc:	05400793          	li	a5,84
80005b00:	02f70733          	mul	a4,a4,a5
80005b04:	00002797          	auipc	a5,0x2
80005b08:	5d478793          	addi	a5,a5,1492 # 800080d8 <proctab>
80005b0c:	00f707b3          	add	a5,a4,a5
80005b10:	fef42023          	sw	a5,-32(s0)
80005b14:	fe042783          	lw	a5,-32(s0)
80005b18:	00079023          	sh	zero,0(a5)
80005b1c:	fe042783          	lw	a5,-32(s0)
80005b20:	00078823          	sb	zero,16(a5)
80005b24:	fe042783          	lw	a5,-32(s0)
80005b28:	0007a423          	sw	zero,8(a5)
80005b2c:	fe042783          	lw	a5,-32(s0)
80005b30:	00079123          	sh	zero,2(a5)
80005b34:	fec42783          	lw	a5,-20(s0)
80005b38:	00178793          	addi	a5,a5,1
80005b3c:	fef42623          	sw	a5,-20(s0)
80005b40:	fec42703          	lw	a4,-20(s0)
80005b44:	00900793          	li	a5,9
80005b48:	fae7d8e3          	bge	a5,a4,80005af8 <sysinit+0x5c>
80005b4c:	fe042623          	sw	zero,-20(s0)
80005b50:	0580006f          	j	80005ba8 <sysinit+0x10c>
80005b54:	fec42703          	lw	a4,-20(s0)
80005b58:	00070793          	mv	a5,a4
80005b5c:	00179793          	slli	a5,a5,0x1
80005b60:	00e787b3          	add	a5,a5,a4
80005b64:	00279793          	slli	a5,a5,0x2
80005b68:	00003717          	auipc	a4,0x3
80005b6c:	8b870713          	addi	a4,a4,-1864 # 80008420 <semtab>
80005b70:	00e787b3          	add	a5,a5,a4
80005b74:	fef42223          	sw	a5,-28(s0)
80005b78:	fe442783          	lw	a5,-28(s0)
80005b7c:	00078023          	sb	zero,0(a5)
80005b80:	fe442783          	lw	a5,-28(s0)
80005b84:	0007a223          	sw	zero,4(a5)
80005b88:	3c8010ef          	jal	80006f50 <newqueue>
80005b8c:	00050793          	mv	a5,a0
80005b90:	00078713          	mv	a4,a5
80005b94:	fe442783          	lw	a5,-28(s0)
80005b98:	00e79423          	sh	a4,8(a5)
80005b9c:	fec42783          	lw	a5,-20(s0)
80005ba0:	00178793          	addi	a5,a5,1
80005ba4:	fef42623          	sw	a5,-20(s0)
80005ba8:	fec42703          	lw	a4,-20(s0)
80005bac:	00900793          	li	a5,9
80005bb0:	fae7d2e3          	bge	a5,a4,80005b54 <sysinit+0xb8>
80005bb4:	39c010ef          	jal	80006f50 <newqueue>
80005bb8:	00050793          	mv	a5,a0
80005bbc:	00078713          	mv	a4,a5
80005bc0:	00003797          	auipc	a5,0x3
80005bc4:	a0878793          	addi	a5,a5,-1528 # 800085c8 <readylist>
80005bc8:	00e79023          	sh	a4,0(a5)
80005bcc:	fe042623          	sw	zero,-20(s0)
80005bd0:	0100006f          	j	80005be0 <sysinit+0x144>
80005bd4:	fec42783          	lw	a5,-20(s0)
80005bd8:	00178793          	addi	a5,a5,1
80005bdc:	fef42623          	sw	a5,-20(s0)
80005be0:	fec42703          	lw	a4,-20(s0)
80005be4:	00400793          	li	a5,4
80005be8:	fee7d6e3          	bge	a5,a4,80005bd4 <sysinit+0x138>
80005bec:	00000013          	nop
80005bf0:	01c12083          	lw	ra,28(sp)
80005bf4:	01812403          	lw	s0,24(sp)
80005bf8:	02010113          	addi	sp,sp,32
80005bfc:	00008067          	ret

80005c00 <cycleCount>:
80005c00:	ff010113          	addi	sp,sp,-16
80005c04:	00812623          	sw	s0,12(sp)
80005c08:	01010413          	addi	s0,sp,16
80005c0c:	00002797          	auipc	a5,0x2
80005c10:	4b478793          	addi	a5,a5,1204 # 800080c0 <mtime>
80005c14:	0007a783          	lw	a5,0(a5)
80005c18:	0007a703          	lw	a4,0(a5)
80005c1c:	0047a783          	lw	a5,4(a5)
80005c20:	00070513          	mv	a0,a4
80005c24:	00078593          	mv	a1,a5
80005c28:	00c12403          	lw	s0,12(sp)
80005c2c:	01010113          	addi	sp,sp,16
80005c30:	00008067          	ret

80005c34 <delay>:
80005c34:	fd010113          	addi	sp,sp,-48
80005c38:	02112623          	sw	ra,44(sp)
80005c3c:	02812423          	sw	s0,40(sp)
80005c40:	03212223          	sw	s2,36(sp)
80005c44:	03312023          	sw	s3,32(sp)
80005c48:	03010413          	addi	s0,sp,48
80005c4c:	fca42e23          	sw	a0,-36(s0)
80005c50:	fb1ff0ef          	jal	80005c00 <cycleCount>
80005c54:	fea42423          	sw	a0,-24(s0)
80005c58:	feb42623          	sw	a1,-20(s0)
80005c5c:	fdc42783          	lw	a5,-36(s0)
80005c60:	00078913          	mv	s2,a5
80005c64:	00000993          	li	s3,0
80005c68:	fe842603          	lw	a2,-24(s0)
80005c6c:	fec42683          	lw	a3,-20(s0)
80005c70:	01260733          	add	a4,a2,s2
80005c74:	00070593          	mv	a1,a4
80005c78:	00c5b5b3          	sltu	a1,a1,a2
80005c7c:	013687b3          	add	a5,a3,s3
80005c80:	00f586b3          	add	a3,a1,a5
80005c84:	00068793          	mv	a5,a3
80005c88:	fee42023          	sw	a4,-32(s0)
80005c8c:	fef42223          	sw	a5,-28(s0)
80005c90:	0080006f          	j	80005c98 <delay+0x64>
80005c94:	00000033          	add	zero,zero,zero
80005c98:	f69ff0ef          	jal	80005c00 <cycleCount>
80005c9c:	00050713          	mv	a4,a0
80005ca0:	00058793          	mv	a5,a1
80005ca4:	fe442683          	lw	a3,-28(s0)
80005ca8:	00078613          	mv	a2,a5
80005cac:	fed664e3          	bltu	a2,a3,80005c94 <delay+0x60>
80005cb0:	fe442683          	lw	a3,-28(s0)
80005cb4:	00078613          	mv	a2,a5
80005cb8:	00c69863          	bne	a3,a2,80005cc8 <delay+0x94>
80005cbc:	fe042683          	lw	a3,-32(s0)
80005cc0:	00070793          	mv	a5,a4
80005cc4:	fcd7e8e3          	bltu	a5,a3,80005c94 <delay+0x60>
80005cc8:	00000013          	nop
80005ccc:	02c12083          	lw	ra,44(sp)
80005cd0:	02812403          	lw	s0,40(sp)
80005cd4:	02412903          	lw	s2,36(sp)
80005cd8:	02012983          	lw	s3,32(sp)
80005cdc:	03010113          	addi	sp,sp,48
80005ce0:	00008067          	ret

80005ce4 <init_timer>:
80005ce4:	fd010113          	addi	sp,sp,-48
80005ce8:	02812623          	sw	s0,44(sp)
80005cec:	03010413          	addi	s0,sp,48
80005cf0:	fca42c23          	sw	a0,-40(s0)
80005cf4:	fcb42e23          	sw	a1,-36(s0)
80005cf8:	00002797          	auipc	a5,0x2
80005cfc:	3c878793          	addi	a5,a5,968 # 800080c0 <mtime>
80005d00:	0007a783          	lw	a5,0(a5)
80005d04:	0007a703          	lw	a4,0(a5)
80005d08:	0047a783          	lw	a5,4(a5)
80005d0c:	fee42423          	sw	a4,-24(s0)
80005d10:	fef42623          	sw	a5,-20(s0)
80005d14:	00002797          	auipc	a5,0x2
80005d18:	3a878793          	addi	a5,a5,936 # 800080bc <mtimecmp>
80005d1c:	0007a803          	lw	a6,0(a5)
80005d20:	fe842703          	lw	a4,-24(s0)
80005d24:	fec42783          	lw	a5,-20(s0)
80005d28:	fd842503          	lw	a0,-40(s0)
80005d2c:	fdc42583          	lw	a1,-36(s0)
80005d30:	00a70633          	add	a2,a4,a0
80005d34:	00060893          	mv	a7,a2
80005d38:	00e8b8b3          	sltu	a7,a7,a4
80005d3c:	00b786b3          	add	a3,a5,a1
80005d40:	00d887b3          	add	a5,a7,a3
80005d44:	00078693          	mv	a3,a5
80005d48:	00060713          	mv	a4,a2
80005d4c:	00068793          	mv	a5,a3
80005d50:	00e82023          	sw	a4,0(a6)
80005d54:	00f82223          	sw	a5,4(a6)
80005d58:	00000013          	nop
80005d5c:	02c12403          	lw	s0,44(sp)
80005d60:	03010113          	addi	sp,sp,48
80005d64:	00008067          	ret

80005d68 <clkupdate>:
80005d68:	fe010113          	addi	sp,sp,-32
80005d6c:	00812e23          	sw	s0,28(sp)
80005d70:	02010413          	addi	s0,sp,32
80005d74:	fea42423          	sw	a0,-24(s0)
80005d78:	feb42623          	sw	a1,-20(s0)
80005d7c:	00002797          	auipc	a5,0x2
80005d80:	34478793          	addi	a5,a5,836 # 800080c0 <mtime>
80005d84:	0007a783          	lw	a5,0(a5)
80005d88:	0007a703          	lw	a4,0(a5)
80005d8c:	0047a783          	lw	a5,4(a5)
80005d90:	00002697          	auipc	a3,0x2
80005d94:	32c68693          	addi	a3,a3,812 # 800080bc <mtimecmp>
80005d98:	0006a803          	lw	a6,0(a3)
80005d9c:	fe842503          	lw	a0,-24(s0)
80005da0:	fec42583          	lw	a1,-20(s0)
80005da4:	00a70633          	add	a2,a4,a0
80005da8:	00060893          	mv	a7,a2
80005dac:	00e8b8b3          	sltu	a7,a7,a4
80005db0:	00b786b3          	add	a3,a5,a1
80005db4:	00d887b3          	add	a5,a7,a3
80005db8:	00078693          	mv	a3,a5
80005dbc:	00060713          	mv	a4,a2
80005dc0:	00068793          	mv	a5,a3
80005dc4:	00e82023          	sw	a4,0(a6)
80005dc8:	00f82223          	sw	a5,4(a6)
80005dcc:	00000013          	nop
80005dd0:	01c12403          	lw	s0,28(sp)
80005dd4:	02010113          	addi	sp,sp,32
80005dd8:	00008067          	ret

80005ddc <kputc>:
80005ddc:	fd010113          	addi	sp,sp,-48
80005de0:	02112623          	sw	ra,44(sp)
80005de4:	02812423          	sw	s0,40(sp)
80005de8:	03010413          	addi	s0,sp,48
80005dec:	00050793          	mv	a5,a0
80005df0:	fcf40fa3          	sb	a5,-33(s0)
80005df4:	bacfa0ef          	jal	800001a0 <disable>
80005df8:	fea42623          	sw	a0,-20(s0)
80005dfc:	fdf44783          	lbu	a5,-33(s0)
80005e00:	40279073          	csrw	0x402,a5
80005e04:	fec42503          	lw	a0,-20(s0)
80005e08:	ba8fa0ef          	jal	800001b0 <restore>
80005e0c:	00100793          	li	a5,1
80005e10:	00078513          	mv	a0,a5
80005e14:	02c12083          	lw	ra,44(sp)
80005e18:	02812403          	lw	s0,40(sp)
80005e1c:	03010113          	addi	sp,sp,48
80005e20:	00008067          	ret

80005e24 <kgetc>:
80005e24:	ff010113          	addi	sp,sp,-16
80005e28:	00812623          	sw	s0,12(sp)
80005e2c:	01010413          	addi	s0,sp,16
80005e30:	00000013          	nop
80005e34:	00078513          	mv	a0,a5
80005e38:	00c12403          	lw	s0,12(sp)
80005e3c:	01010113          	addi	sp,sp,16
80005e40:	00008067          	ret

80005e44 <kprintf>:
80005e44:	fb010113          	addi	sp,sp,-80
80005e48:	02112623          	sw	ra,44(sp)
80005e4c:	02812423          	sw	s0,40(sp)
80005e50:	03010413          	addi	s0,sp,48
80005e54:	fca42e23          	sw	a0,-36(s0)
80005e58:	00b42223          	sw	a1,4(s0)
80005e5c:	00c42423          	sw	a2,8(s0)
80005e60:	00d42623          	sw	a3,12(s0)
80005e64:	00e42823          	sw	a4,16(s0)
80005e68:	00f42a23          	sw	a5,20(s0)
80005e6c:	01042c23          	sw	a6,24(s0)
80005e70:	01142e23          	sw	a7,28(s0)
80005e74:	02040793          	addi	a5,s0,32
80005e78:	fcf42c23          	sw	a5,-40(s0)
80005e7c:	fd842783          	lw	a5,-40(s0)
80005e80:	fe478793          	addi	a5,a5,-28
80005e84:	fef42623          	sw	a5,-20(s0)
80005e88:	fec42783          	lw	a5,-20(s0)
80005e8c:	00000617          	auipc	a2,0x0
80005e90:	f5060613          	addi	a2,a2,-176 # 80005ddc <kputc>
80005e94:	00078593          	mv	a1,a5
80005e98:	fdc42503          	lw	a0,-36(s0)
80005e9c:	c14fa0ef          	jal	800002b0 <_doprnt>
80005ea0:	00100793          	li	a5,1
80005ea4:	00078513          	mv	a0,a5
80005ea8:	02c12083          	lw	ra,44(sp)
80005eac:	02812403          	lw	s0,40(sp)
80005eb0:	05010113          	addi	sp,sp,80
80005eb4:	00008067          	ret

80005eb8 <meminit>:
80005eb8:	fe010113          	addi	sp,sp,-32
80005ebc:	00812e23          	sw	s0,28(sp)
80005ec0:	02010413          	addi	s0,sp,32
80005ec4:	00002797          	auipc	a5,0x2
80005ec8:	71c78793          	addi	a5,a5,1820 # 800085e0 <minheap>
80005ecc:	00003717          	auipc	a4,0x3
80005ed0:	71c70713          	addi	a4,a4,1820 # 800095e8 <_end>
80005ed4:	00e7a023          	sw	a4,0(a5)
80005ed8:	00002797          	auipc	a5,0x2
80005edc:	70c78793          	addi	a5,a5,1804 # 800085e4 <maxheap>
80005ee0:	80018737          	lui	a4,0x80018
80005ee4:	6a070713          	addi	a4,a4,1696 # 800186a0 <__global_pointer+0xe8b8>
80005ee8:	00e7a023          	sw	a4,0(a5)
80005eec:	00002797          	auipc	a5,0x2
80005ef0:	6f478793          	addi	a5,a5,1780 # 800085e0 <minheap>
80005ef4:	0007a703          	lw	a4,0(a5)
80005ef8:	00002797          	auipc	a5,0x2
80005efc:	6d878793          	addi	a5,a5,1752 # 800085d0 <memlist>
80005f00:	00e7a023          	sw	a4,0(a5)
80005f04:	00002797          	auipc	a5,0x2
80005f08:	6cc78793          	addi	a5,a5,1740 # 800085d0 <memlist>
80005f0c:	0007a783          	lw	a5,0(a5)
80005f10:	fef42623          	sw	a5,-20(s0)
80005f14:	fec42783          	lw	a5,-20(s0)
80005f18:	0007a023          	sw	zero,0(a5)
80005f1c:	00002797          	auipc	a5,0x2
80005f20:	6c878793          	addi	a5,a5,1736 # 800085e4 <maxheap>
80005f24:	0007a783          	lw	a5,0(a5)
80005f28:	00078713          	mv	a4,a5
80005f2c:	00002797          	auipc	a5,0x2
80005f30:	6b478793          	addi	a5,a5,1716 # 800085e0 <minheap>
80005f34:	0007a783          	lw	a5,0(a5)
80005f38:	40f70733          	sub	a4,a4,a5
80005f3c:	fec42783          	lw	a5,-20(s0)
80005f40:	00e7a223          	sw	a4,4(a5)
80005f44:	fec42783          	lw	a5,-20(s0)
80005f48:	0047a703          	lw	a4,4(a5)
80005f4c:	00002797          	auipc	a5,0x2
80005f50:	68478793          	addi	a5,a5,1668 # 800085d0 <memlist>
80005f54:	00e7a223          	sw	a4,4(a5)
80005f58:	00000013          	nop
80005f5c:	01c12403          	lw	s0,28(sp)
80005f60:	02010113          	addi	sp,sp,32
80005f64:	00008067          	ret

80005f68 <freemem>:
80005f68:	fc010113          	addi	sp,sp,-64
80005f6c:	02112e23          	sw	ra,60(sp)
80005f70:	02812c23          	sw	s0,56(sp)
80005f74:	04010413          	addi	s0,sp,64
80005f78:	fca42623          	sw	a0,-52(s0)
80005f7c:	fcb42423          	sw	a1,-56(s0)
80005f80:	a20fa0ef          	jal	800001a0 <disable>
80005f84:	fca42e23          	sw	a0,-36(s0)
80005f88:	fc842783          	lw	a5,-56(s0)
80005f8c:	02078663          	beqz	a5,80005fb8 <freemem+0x50>
80005f90:	fcc42783          	lw	a5,-52(s0)
80005f94:	00002717          	auipc	a4,0x2
80005f98:	64c70713          	addi	a4,a4,1612 # 800085e0 <minheap>
80005f9c:	00072703          	lw	a4,0(a4)
80005fa0:	00e7ec63          	bltu	a5,a4,80005fb8 <freemem+0x50>
80005fa4:	fcc42783          	lw	a5,-52(s0)
80005fa8:	00002717          	auipc	a4,0x2
80005fac:	63c70713          	addi	a4,a4,1596 # 800085e4 <maxheap>
80005fb0:	00072703          	lw	a4,0(a4)
80005fb4:	00f77a63          	bgeu	a4,a5,80005fc8 <freemem+0x60>
80005fb8:	fdc42503          	lw	a0,-36(s0)
80005fbc:	9f4fa0ef          	jal	800001b0 <restore>
80005fc0:	fff00793          	li	a5,-1
80005fc4:	19c0006f          	j	80006160 <freemem+0x1f8>
80005fc8:	fc842783          	lw	a5,-56(s0)
80005fcc:	00778793          	addi	a5,a5,7
80005fd0:	ff87f793          	andi	a5,a5,-8
80005fd4:	fcf42423          	sw	a5,-56(s0)
80005fd8:	fcc42783          	lw	a5,-52(s0)
80005fdc:	fef42223          	sw	a5,-28(s0)
80005fe0:	00002797          	auipc	a5,0x2
80005fe4:	5f078793          	addi	a5,a5,1520 # 800085d0 <memlist>
80005fe8:	fef42423          	sw	a5,-24(s0)
80005fec:	00002797          	auipc	a5,0x2
80005ff0:	5e478793          	addi	a5,a5,1508 # 800085d0 <memlist>
80005ff4:	0007a783          	lw	a5,0(a5)
80005ff8:	fef42623          	sw	a5,-20(s0)
80005ffc:	0180006f          	j	80006014 <freemem+0xac>
80006000:	fec42783          	lw	a5,-20(s0)
80006004:	fef42423          	sw	a5,-24(s0)
80006008:	fec42783          	lw	a5,-20(s0)
8000600c:	0007a783          	lw	a5,0(a5)
80006010:	fef42623          	sw	a5,-20(s0)
80006014:	fec42783          	lw	a5,-20(s0)
80006018:	00078863          	beqz	a5,80006028 <freemem+0xc0>
8000601c:	fec42703          	lw	a4,-20(s0)
80006020:	fe442783          	lw	a5,-28(s0)
80006024:	fcf76ee3          	bltu	a4,a5,80006000 <freemem+0x98>
80006028:	fe842703          	lw	a4,-24(s0)
8000602c:	00002797          	auipc	a5,0x2
80006030:	5a478793          	addi	a5,a5,1444 # 800085d0 <memlist>
80006034:	00f71663          	bne	a4,a5,80006040 <freemem+0xd8>
80006038:	fe042023          	sw	zero,-32(s0)
8000603c:	0180006f          	j	80006054 <freemem+0xec>
80006040:	fe842783          	lw	a5,-24(s0)
80006044:	0047a703          	lw	a4,4(a5)
80006048:	fe842783          	lw	a5,-24(s0)
8000604c:	00f707b3          	add	a5,a4,a5
80006050:	fef42023          	sw	a5,-32(s0)
80006054:	fe842703          	lw	a4,-24(s0)
80006058:	00002797          	auipc	a5,0x2
8000605c:	57878793          	addi	a5,a5,1400 # 800085d0 <memlist>
80006060:	00f70863          	beq	a4,a5,80006070 <freemem+0x108>
80006064:	fe442783          	lw	a5,-28(s0)
80006068:	fe042703          	lw	a4,-32(s0)
8000606c:	02e7e063          	bltu	a5,a4,8000608c <freemem+0x124>
80006070:	fec42783          	lw	a5,-20(s0)
80006074:	02078463          	beqz	a5,8000609c <freemem+0x134>
80006078:	fe442703          	lw	a4,-28(s0)
8000607c:	fc842783          	lw	a5,-56(s0)
80006080:	00f70733          	add	a4,a4,a5
80006084:	fec42783          	lw	a5,-20(s0)
80006088:	00e7fa63          	bgeu	a5,a4,8000609c <freemem+0x134>
8000608c:	fdc42503          	lw	a0,-36(s0)
80006090:	920fa0ef          	jal	800001b0 <restore>
80006094:	fff00793          	li	a5,-1
80006098:	0c80006f          	j	80006160 <freemem+0x1f8>
8000609c:	00002797          	auipc	a5,0x2
800060a0:	53478793          	addi	a5,a5,1332 # 800085d0 <memlist>
800060a4:	0047a703          	lw	a4,4(a5)
800060a8:	fc842783          	lw	a5,-56(s0)
800060ac:	00f70733          	add	a4,a4,a5
800060b0:	00002797          	auipc	a5,0x2
800060b4:	52078793          	addi	a5,a5,1312 # 800085d0 <memlist>
800060b8:	00e7a223          	sw	a4,4(a5)
800060bc:	fe442783          	lw	a5,-28(s0)
800060c0:	fe042703          	lw	a4,-32(s0)
800060c4:	02f71463          	bne	a4,a5,800060ec <freemem+0x184>
800060c8:	fe842783          	lw	a5,-24(s0)
800060cc:	0047a703          	lw	a4,4(a5)
800060d0:	fc842783          	lw	a5,-56(s0)
800060d4:	00f70733          	add	a4,a4,a5
800060d8:	fe842783          	lw	a5,-24(s0)
800060dc:	00e7a223          	sw	a4,4(a5)
800060e0:	fe842783          	lw	a5,-24(s0)
800060e4:	fef42223          	sw	a5,-28(s0)
800060e8:	0280006f          	j	80006110 <freemem+0x1a8>
800060ec:	fe442783          	lw	a5,-28(s0)
800060f0:	fec42703          	lw	a4,-20(s0)
800060f4:	00e7a023          	sw	a4,0(a5)
800060f8:	fe442783          	lw	a5,-28(s0)
800060fc:	fc842703          	lw	a4,-56(s0)
80006100:	00e7a223          	sw	a4,4(a5)
80006104:	fe842783          	lw	a5,-24(s0)
80006108:	fe442703          	lw	a4,-28(s0)
8000610c:	00e7a023          	sw	a4,0(a5)
80006110:	fe442783          	lw	a5,-28(s0)
80006114:	0047a703          	lw	a4,4(a5)
80006118:	fe442783          	lw	a5,-28(s0)
8000611c:	00f70733          	add	a4,a4,a5
80006120:	fec42783          	lw	a5,-20(s0)
80006124:	02f71863          	bne	a4,a5,80006154 <freemem+0x1ec>
80006128:	fe442783          	lw	a5,-28(s0)
8000612c:	0047a703          	lw	a4,4(a5)
80006130:	fec42783          	lw	a5,-20(s0)
80006134:	0047a783          	lw	a5,4(a5)
80006138:	00f70733          	add	a4,a4,a5
8000613c:	fe442783          	lw	a5,-28(s0)
80006140:	00e7a223          	sw	a4,4(a5)
80006144:	fec42783          	lw	a5,-20(s0)
80006148:	0007a703          	lw	a4,0(a5)
8000614c:	fe442783          	lw	a5,-28(s0)
80006150:	00e7a023          	sw	a4,0(a5)
80006154:	fdc42503          	lw	a0,-36(s0)
80006158:	858fa0ef          	jal	800001b0 <restore>
8000615c:	00100793          	li	a5,1
80006160:	00078513          	mv	a0,a5
80006164:	03c12083          	lw	ra,60(sp)
80006168:	03812403          	lw	s0,56(sp)
8000616c:	04010113          	addi	sp,sp,64
80006170:	00008067          	ret

80006174 <getmem>:
80006174:	fd010113          	addi	sp,sp,-48
80006178:	02112623          	sw	ra,44(sp)
8000617c:	02812423          	sw	s0,40(sp)
80006180:	03010413          	addi	s0,sp,48
80006184:	fca42e23          	sw	a0,-36(s0)
80006188:	818fa0ef          	jal	800001a0 <disable>
8000618c:	fea42223          	sw	a0,-28(s0)
80006190:	fdc42783          	lw	a5,-36(s0)
80006194:	00079a63          	bnez	a5,800061a8 <getmem+0x34>
80006198:	fe442503          	lw	a0,-28(s0)
8000619c:	814fa0ef          	jal	800001b0 <restore>
800061a0:	fff00793          	li	a5,-1
800061a4:	1300006f          	j	800062d4 <getmem+0x160>
800061a8:	fdc42783          	lw	a5,-36(s0)
800061ac:	00778793          	addi	a5,a5,7
800061b0:	ff87f793          	andi	a5,a5,-8
800061b4:	fcf42e23          	sw	a5,-36(s0)
800061b8:	00002797          	auipc	a5,0x2
800061bc:	41878793          	addi	a5,a5,1048 # 800085d0 <memlist>
800061c0:	fef42623          	sw	a5,-20(s0)
800061c4:	00002797          	auipc	a5,0x2
800061c8:	40c78793          	addi	a5,a5,1036 # 800085d0 <memlist>
800061cc:	0007a783          	lw	a5,0(a5)
800061d0:	fef42423          	sw	a5,-24(s0)
800061d4:	0ec0006f          	j	800062c0 <getmem+0x14c>
800061d8:	fe842783          	lw	a5,-24(s0)
800061dc:	0047a783          	lw	a5,4(a5)
800061e0:	fdc42703          	lw	a4,-36(s0)
800061e4:	04f71263          	bne	a4,a5,80006228 <getmem+0xb4>
800061e8:	fe842783          	lw	a5,-24(s0)
800061ec:	0007a703          	lw	a4,0(a5)
800061f0:	fec42783          	lw	a5,-20(s0)
800061f4:	00e7a023          	sw	a4,0(a5)
800061f8:	00002797          	auipc	a5,0x2
800061fc:	3d878793          	addi	a5,a5,984 # 800085d0 <memlist>
80006200:	0047a703          	lw	a4,4(a5)
80006204:	fdc42783          	lw	a5,-36(s0)
80006208:	40f70733          	sub	a4,a4,a5
8000620c:	00002797          	auipc	a5,0x2
80006210:	3c478793          	addi	a5,a5,964 # 800085d0 <memlist>
80006214:	00e7a223          	sw	a4,4(a5)
80006218:	fe442503          	lw	a0,-28(s0)
8000621c:	f95f90ef          	jal	800001b0 <restore>
80006220:	fe842783          	lw	a5,-24(s0)
80006224:	0b00006f          	j	800062d4 <getmem+0x160>
80006228:	fe842783          	lw	a5,-24(s0)
8000622c:	0047a783          	lw	a5,4(a5)
80006230:	fdc42703          	lw	a4,-36(s0)
80006234:	06f77c63          	bgeu	a4,a5,800062ac <getmem+0x138>
80006238:	fe842703          	lw	a4,-24(s0)
8000623c:	fdc42783          	lw	a5,-36(s0)
80006240:	00f707b3          	add	a5,a4,a5
80006244:	fef42023          	sw	a5,-32(s0)
80006248:	fec42783          	lw	a5,-20(s0)
8000624c:	fe042703          	lw	a4,-32(s0)
80006250:	00e7a023          	sw	a4,0(a5)
80006254:	fe842783          	lw	a5,-24(s0)
80006258:	0007a703          	lw	a4,0(a5)
8000625c:	fe042783          	lw	a5,-32(s0)
80006260:	00e7a023          	sw	a4,0(a5)
80006264:	fe842783          	lw	a5,-24(s0)
80006268:	0047a703          	lw	a4,4(a5)
8000626c:	fdc42783          	lw	a5,-36(s0)
80006270:	40f70733          	sub	a4,a4,a5
80006274:	fe042783          	lw	a5,-32(s0)
80006278:	00e7a223          	sw	a4,4(a5)
8000627c:	00002797          	auipc	a5,0x2
80006280:	35478793          	addi	a5,a5,852 # 800085d0 <memlist>
80006284:	0047a703          	lw	a4,4(a5)
80006288:	fdc42783          	lw	a5,-36(s0)
8000628c:	40f70733          	sub	a4,a4,a5
80006290:	00002797          	auipc	a5,0x2
80006294:	34078793          	addi	a5,a5,832 # 800085d0 <memlist>
80006298:	00e7a223          	sw	a4,4(a5)
8000629c:	fe442503          	lw	a0,-28(s0)
800062a0:	f11f90ef          	jal	800001b0 <restore>
800062a4:	fe842783          	lw	a5,-24(s0)
800062a8:	02c0006f          	j	800062d4 <getmem+0x160>
800062ac:	fe842783          	lw	a5,-24(s0)
800062b0:	fef42623          	sw	a5,-20(s0)
800062b4:	fe842783          	lw	a5,-24(s0)
800062b8:	0007a783          	lw	a5,0(a5)
800062bc:	fef42423          	sw	a5,-24(s0)
800062c0:	fe842783          	lw	a5,-24(s0)
800062c4:	f0079ae3          	bnez	a5,800061d8 <getmem+0x64>
800062c8:	fe442503          	lw	a0,-28(s0)
800062cc:	ee5f90ef          	jal	800001b0 <restore>
800062d0:	fff00793          	li	a5,-1
800062d4:	00078513          	mv	a0,a5
800062d8:	02c12083          	lw	ra,44(sp)
800062dc:	02812403          	lw	s0,40(sp)
800062e0:	03010113          	addi	sp,sp,48
800062e4:	00008067          	ret

800062e8 <getstk>:
800062e8:	fc010113          	addi	sp,sp,-64
800062ec:	02112e23          	sw	ra,60(sp)
800062f0:	02812c23          	sw	s0,56(sp)
800062f4:	04010413          	addi	s0,sp,64
800062f8:	fca42623          	sw	a0,-52(s0)
800062fc:	ea5f90ef          	jal	800001a0 <disable>
80006300:	fca42e23          	sw	a0,-36(s0)
80006304:	fcc42783          	lw	a5,-52(s0)
80006308:	00079a63          	bnez	a5,8000631c <getstk+0x34>
8000630c:	fdc42503          	lw	a0,-36(s0)
80006310:	ea1f90ef          	jal	800001b0 <restore>
80006314:	fff00793          	li	a5,-1
80006318:	1180006f          	j	80006430 <getstk+0x148>
8000631c:	fcc42783          	lw	a5,-52(s0)
80006320:	00778793          	addi	a5,a5,7
80006324:	ff87f793          	andi	a5,a5,-8
80006328:	fcf42623          	sw	a5,-52(s0)
8000632c:	00002797          	auipc	a5,0x2
80006330:	2a478793          	addi	a5,a5,676 # 800085d0 <memlist>
80006334:	fef42623          	sw	a5,-20(s0)
80006338:	00002797          	auipc	a5,0x2
8000633c:	29878793          	addi	a5,a5,664 # 800085d0 <memlist>
80006340:	0007a783          	lw	a5,0(a5)
80006344:	fef42423          	sw	a5,-24(s0)
80006348:	fe042223          	sw	zero,-28(s0)
8000634c:	fe042023          	sw	zero,-32(s0)
80006350:	0380006f          	j	80006388 <getstk+0xa0>
80006354:	fe842783          	lw	a5,-24(s0)
80006358:	0047a783          	lw	a5,4(a5)
8000635c:	fcc42703          	lw	a4,-52(s0)
80006360:	00e7ea63          	bltu	a5,a4,80006374 <getstk+0x8c>
80006364:	fe842783          	lw	a5,-24(s0)
80006368:	fef42223          	sw	a5,-28(s0)
8000636c:	fec42783          	lw	a5,-20(s0)
80006370:	fef42023          	sw	a5,-32(s0)
80006374:	fe842783          	lw	a5,-24(s0)
80006378:	fef42623          	sw	a5,-20(s0)
8000637c:	fe842783          	lw	a5,-24(s0)
80006380:	0007a783          	lw	a5,0(a5)
80006384:	fef42423          	sw	a5,-24(s0)
80006388:	fe842783          	lw	a5,-24(s0)
8000638c:	fc0794e3          	bnez	a5,80006354 <getstk+0x6c>
80006390:	fe442783          	lw	a5,-28(s0)
80006394:	00079a63          	bnez	a5,800063a8 <getstk+0xc0>
80006398:	fdc42503          	lw	a0,-36(s0)
8000639c:	e15f90ef          	jal	800001b0 <restore>
800063a0:	fff00793          	li	a5,-1
800063a4:	08c0006f          	j	80006430 <getstk+0x148>
800063a8:	fe442783          	lw	a5,-28(s0)
800063ac:	0047a783          	lw	a5,4(a5)
800063b0:	fcc42703          	lw	a4,-52(s0)
800063b4:	00f71c63          	bne	a4,a5,800063cc <getstk+0xe4>
800063b8:	fe442783          	lw	a5,-28(s0)
800063bc:	0007a703          	lw	a4,0(a5)
800063c0:	fe042783          	lw	a5,-32(s0)
800063c4:	00e7a023          	sw	a4,0(a5)
800063c8:	0300006f          	j	800063f8 <getstk+0x110>
800063cc:	fe442783          	lw	a5,-28(s0)
800063d0:	0047a703          	lw	a4,4(a5)
800063d4:	fcc42783          	lw	a5,-52(s0)
800063d8:	40f70733          	sub	a4,a4,a5
800063dc:	fe442783          	lw	a5,-28(s0)
800063e0:	00e7a223          	sw	a4,4(a5)
800063e4:	fe442783          	lw	a5,-28(s0)
800063e8:	0047a703          	lw	a4,4(a5)
800063ec:	fe442783          	lw	a5,-28(s0)
800063f0:	00f707b3          	add	a5,a4,a5
800063f4:	fef42223          	sw	a5,-28(s0)
800063f8:	00002797          	auipc	a5,0x2
800063fc:	1d878793          	addi	a5,a5,472 # 800085d0 <memlist>
80006400:	0047a703          	lw	a4,4(a5)
80006404:	fcc42783          	lw	a5,-52(s0)
80006408:	40f70733          	sub	a4,a4,a5
8000640c:	00002797          	auipc	a5,0x2
80006410:	1c478793          	addi	a5,a5,452 # 800085d0 <memlist>
80006414:	00e7a223          	sw	a4,4(a5)
80006418:	fdc42503          	lw	a0,-36(s0)
8000641c:	d95f90ef          	jal	800001b0 <restore>
80006420:	fe442703          	lw	a4,-28(s0)
80006424:	fcc42783          	lw	a5,-52(s0)
80006428:	00f707b3          	add	a5,a4,a5
8000642c:	ffc78793          	addi	a5,a5,-4
80006430:	00078513          	mv	a0,a5
80006434:	03c12083          	lw	ra,60(sp)
80006438:	03812403          	lw	s0,56(sp)
8000643c:	04010113          	addi	sp,sp,64
80006440:	00008067          	ret

80006444 <heap_free>:
80006444:	fe010113          	addi	sp,sp,-32
80006448:	00812e23          	sw	s0,28(sp)
8000644c:	02010413          	addi	s0,sp,32
80006450:	fe042423          	sw	zero,-24(s0)
80006454:	00002797          	auipc	a5,0x2
80006458:	17c78793          	addi	a5,a5,380 # 800085d0 <memlist>
8000645c:	0007a783          	lw	a5,0(a5)
80006460:	fef42623          	sw	a5,-20(s0)
80006464:	0240006f          	j	80006488 <heap_free+0x44>
80006468:	fec42783          	lw	a5,-20(s0)
8000646c:	0047a783          	lw	a5,4(a5)
80006470:	fe842703          	lw	a4,-24(s0)
80006474:	00f707b3          	add	a5,a4,a5
80006478:	fef42423          	sw	a5,-24(s0)
8000647c:	fec42783          	lw	a5,-20(s0)
80006480:	0007a783          	lw	a5,0(a5)
80006484:	fef42623          	sw	a5,-20(s0)
80006488:	fec42783          	lw	a5,-20(s0)
8000648c:	fc079ee3          	bnez	a5,80006468 <heap_free+0x24>
80006490:	fe842783          	lw	a5,-24(s0)
80006494:	00078513          	mv	a0,a5
80006498:	01c12403          	lw	s0,28(sp)
8000649c:	02010113          	addi	sp,sp,32
800064a0:	00008067          	ret

800064a4 <receive>:
800064a4:	fe010113          	addi	sp,sp,-32
800064a8:	00112e23          	sw	ra,28(sp)
800064ac:	00812c23          	sw	s0,24(sp)
800064b0:	02010413          	addi	s0,sp,32
800064b4:	00002797          	auipc	a5,0x2
800064b8:	12878793          	addi	a5,a5,296 # 800085dc <currpid>
800064bc:	0007a703          	lw	a4,0(a5)
800064c0:	05400793          	li	a5,84
800064c4:	02f70733          	mul	a4,a4,a5
800064c8:	00002797          	auipc	a5,0x2
800064cc:	c1078793          	addi	a5,a5,-1008 # 800080d8 <proctab>
800064d0:	00f707b3          	add	a5,a4,a5
800064d4:	fef42623          	sw	a5,-20(s0)
800064d8:	fec42783          	lw	a5,-20(s0)
800064dc:	0307c783          	lbu	a5,48(a5)
800064e0:	00079a63          	bnez	a5,800064f4 <receive+0x50>
800064e4:	fec42783          	lw	a5,-20(s0)
800064e8:	00300713          	li	a4,3
800064ec:	00e79023          	sh	a4,0(a5)
800064f0:	870ff0ef          	jal	80005560 <resched>
800064f4:	fec42783          	lw	a5,-20(s0)
800064f8:	02c7a783          	lw	a5,44(a5)
800064fc:	fef42423          	sw	a5,-24(s0)
80006500:	fec42783          	lw	a5,-20(s0)
80006504:	02078823          	sb	zero,48(a5)
80006508:	fe842783          	lw	a5,-24(s0)
8000650c:	00078513          	mv	a0,a5
80006510:	01c12083          	lw	ra,28(sp)
80006514:	01812403          	lw	s0,24(sp)
80006518:	02010113          	addi	sp,sp,32
8000651c:	00008067          	ret

80006520 <recvclr>:
80006520:	fe010113          	addi	sp,sp,-32
80006524:	00112e23          	sw	ra,28(sp)
80006528:	00812c23          	sw	s0,24(sp)
8000652c:	02010413          	addi	s0,sp,32
80006530:	c71f90ef          	jal	800001a0 <disable>
80006534:	fea42423          	sw	a0,-24(s0)
80006538:	00002797          	auipc	a5,0x2
8000653c:	0a478793          	addi	a5,a5,164 # 800085dc <currpid>
80006540:	0007a703          	lw	a4,0(a5)
80006544:	05400793          	li	a5,84
80006548:	02f70733          	mul	a4,a4,a5
8000654c:	00002797          	auipc	a5,0x2
80006550:	b8c78793          	addi	a5,a5,-1140 # 800080d8 <proctab>
80006554:	00f707b3          	add	a5,a4,a5
80006558:	fef42223          	sw	a5,-28(s0)
8000655c:	fe442783          	lw	a5,-28(s0)
80006560:	0307c703          	lbu	a4,48(a5)
80006564:	00100793          	li	a5,1
80006568:	00f71e63          	bne	a4,a5,80006584 <recvclr+0x64>
8000656c:	fe442783          	lw	a5,-28(s0)
80006570:	02c7a783          	lw	a5,44(a5)
80006574:	fef42623          	sw	a5,-20(s0)
80006578:	fe442783          	lw	a5,-28(s0)
8000657c:	02078823          	sb	zero,48(a5)
80006580:	00c0006f          	j	8000658c <recvclr+0x6c>
80006584:	00100793          	li	a5,1
80006588:	fef42623          	sw	a5,-20(s0)
8000658c:	fe842503          	lw	a0,-24(s0)
80006590:	c21f90ef          	jal	800001b0 <restore>
80006594:	fec42783          	lw	a5,-20(s0)
80006598:	00078513          	mv	a0,a5
8000659c:	01c12083          	lw	ra,28(sp)
800065a0:	01812403          	lw	s0,24(sp)
800065a4:	02010113          	addi	sp,sp,32
800065a8:	00008067          	ret

800065ac <recvtime>:
800065ac:	fd010113          	addi	sp,sp,-48
800065b0:	02112623          	sw	ra,44(sp)
800065b4:	02812423          	sw	s0,40(sp)
800065b8:	03010413          	addi	s0,sp,48
800065bc:	fca42e23          	sw	a0,-36(s0)
800065c0:	fdc42783          	lw	a5,-36(s0)
800065c4:	0007d663          	bgez	a5,800065d0 <recvtime+0x24>
800065c8:	fff00793          	li	a5,-1
800065cc:	0c80006f          	j	80006694 <recvtime+0xe8>
800065d0:	bd1f90ef          	jal	800001a0 <disable>
800065d4:	fea42423          	sw	a0,-24(s0)
800065d8:	00002797          	auipc	a5,0x2
800065dc:	00478793          	addi	a5,a5,4 # 800085dc <currpid>
800065e0:	0007a703          	lw	a4,0(a5)
800065e4:	05400793          	li	a5,84
800065e8:	02f70733          	mul	a4,a4,a5
800065ec:	00002797          	auipc	a5,0x2
800065f0:	aec78793          	addi	a5,a5,-1300 # 800080d8 <proctab>
800065f4:	00f707b3          	add	a5,a4,a5
800065f8:	fef42223          	sw	a5,-28(s0)
800065fc:	fe442783          	lw	a5,-28(s0)
80006600:	0307c783          	lbu	a5,48(a5)
80006604:	04079c63          	bnez	a5,8000665c <recvtime+0xb0>
80006608:	00002797          	auipc	a5,0x2
8000660c:	fd478793          	addi	a5,a5,-44 # 800085dc <currpid>
80006610:	0007a703          	lw	a4,0(a5)
80006614:	00002797          	auipc	a5,0x2
80006618:	fa078793          	addi	a5,a5,-96 # 800085b4 <sleepq>
8000661c:	00079783          	lh	a5,0(a5)
80006620:	fdc42603          	lw	a2,-36(s0)
80006624:	00078593          	mv	a1,a5
80006628:	00070513          	mv	a0,a4
8000662c:	70c000ef          	jal	80006d38 <insertd>
80006630:	00050713          	mv	a4,a0
80006634:	fff00793          	li	a5,-1
80006638:	00f71a63          	bne	a4,a5,8000664c <recvtime+0xa0>
8000663c:	fe842503          	lw	a0,-24(s0)
80006640:	b71f90ef          	jal	800001b0 <restore>
80006644:	fff00793          	li	a5,-1
80006648:	04c0006f          	j	80006694 <recvtime+0xe8>
8000664c:	fe442783          	lw	a5,-28(s0)
80006650:	00700713          	li	a4,7
80006654:	00e79023          	sh	a4,0(a5)
80006658:	f09fe0ef          	jal	80005560 <resched>
8000665c:	fe442783          	lw	a5,-28(s0)
80006660:	0307c783          	lbu	a5,48(a5)
80006664:	00078e63          	beqz	a5,80006680 <recvtime+0xd4>
80006668:	fe442783          	lw	a5,-28(s0)
8000666c:	02c7a783          	lw	a5,44(a5)
80006670:	fef42623          	sw	a5,-20(s0)
80006674:	fe442783          	lw	a5,-28(s0)
80006678:	02078823          	sb	zero,48(a5)
8000667c:	00c0006f          	j	80006688 <recvtime+0xdc>
80006680:	ffd00793          	li	a5,-3
80006684:	fef42623          	sw	a5,-20(s0)
80006688:	fe842503          	lw	a0,-24(s0)
8000668c:	b25f90ef          	jal	800001b0 <restore>
80006690:	fec42783          	lw	a5,-20(s0)
80006694:	00078513          	mv	a0,a5
80006698:	02c12083          	lw	ra,44(sp)
8000669c:	02812403          	lw	s0,40(sp)
800066a0:	03010113          	addi	sp,sp,48
800066a4:	00008067          	ret

800066a8 <send>:
800066a8:	fd010113          	addi	sp,sp,-48
800066ac:	02112623          	sw	ra,44(sp)
800066b0:	02812423          	sw	s0,40(sp)
800066b4:	03010413          	addi	s0,sp,48
800066b8:	fca42e23          	sw	a0,-36(s0)
800066bc:	fcb42c23          	sw	a1,-40(s0)
800066c0:	ae1f90ef          	jal	800001a0 <disable>
800066c4:	fea42623          	sw	a0,-20(s0)
800066c8:	fdc42783          	lw	a5,-36(s0)
800066cc:	0207c863          	bltz	a5,800066fc <send+0x54>
800066d0:	fdc42703          	lw	a4,-36(s0)
800066d4:	00900793          	li	a5,9
800066d8:	02e7c263          	blt	a5,a4,800066fc <send+0x54>
800066dc:	00002717          	auipc	a4,0x2
800066e0:	9fc70713          	addi	a4,a4,-1540 # 800080d8 <proctab>
800066e4:	fdc42683          	lw	a3,-36(s0)
800066e8:	05400793          	li	a5,84
800066ec:	02f687b3          	mul	a5,a3,a5
800066f0:	00f707b3          	add	a5,a4,a5
800066f4:	0007d783          	lhu	a5,0(a5)
800066f8:	00079a63          	bnez	a5,8000670c <send+0x64>
800066fc:	fec42503          	lw	a0,-20(s0)
80006700:	ab1f90ef          	jal	800001b0 <restore>
80006704:	fff00793          	li	a5,-1
80006708:	0a40006f          	j	800067ac <send+0x104>
8000670c:	fdc42703          	lw	a4,-36(s0)
80006710:	05400793          	li	a5,84
80006714:	02f70733          	mul	a4,a4,a5
80006718:	00002797          	auipc	a5,0x2
8000671c:	9c078793          	addi	a5,a5,-1600 # 800080d8 <proctab>
80006720:	00f707b3          	add	a5,a4,a5
80006724:	fef42423          	sw	a5,-24(s0)
80006728:	fe842783          	lw	a5,-24(s0)
8000672c:	0307c783          	lbu	a5,48(a5)
80006730:	00078a63          	beqz	a5,80006744 <send+0x9c>
80006734:	fec42503          	lw	a0,-20(s0)
80006738:	a79f90ef          	jal	800001b0 <restore>
8000673c:	fff00793          	li	a5,-1
80006740:	06c0006f          	j	800067ac <send+0x104>
80006744:	fe842783          	lw	a5,-24(s0)
80006748:	fd842703          	lw	a4,-40(s0)
8000674c:	02e7a623          	sw	a4,44(a5)
80006750:	fe842783          	lw	a5,-24(s0)
80006754:	00100713          	li	a4,1
80006758:	02e78823          	sb	a4,48(a5)
8000675c:	fe842783          	lw	a5,-24(s0)
80006760:	0007d703          	lhu	a4,0(a5)
80006764:	00300793          	li	a5,3
80006768:	00f71a63          	bne	a4,a5,8000677c <send+0xd4>
8000676c:	00100593          	li	a1,1
80006770:	fdc42503          	lw	a0,-36(s0)
80006774:	fa5fe0ef          	jal	80005718 <ready>
80006778:	0280006f          	j	800067a0 <send+0xf8>
8000677c:	fe842783          	lw	a5,-24(s0)
80006780:	0007d703          	lhu	a4,0(a5)
80006784:	00700793          	li	a5,7
80006788:	00f71c63          	bne	a4,a5,800067a0 <send+0xf8>
8000678c:	fdc42503          	lw	a0,-36(s0)
80006790:	841fe0ef          	jal	80004fd0 <unsleep>
80006794:	00100593          	li	a1,1
80006798:	fdc42503          	lw	a0,-36(s0)
8000679c:	f7dfe0ef          	jal	80005718 <ready>
800067a0:	fec42503          	lw	a0,-20(s0)
800067a4:	a0df90ef          	jal	800001b0 <restore>
800067a8:	00100793          	li	a5,1
800067ac:	00078513          	mv	a0,a5
800067b0:	02c12083          	lw	ra,44(sp)
800067b4:	02812403          	lw	s0,40(sp)
800067b8:	03010113          	addi	sp,sp,48
800067bc:	00008067          	ret

800067c0 <panic>:
800067c0:	fe010113          	addi	sp,sp,-32
800067c4:	00112e23          	sw	ra,28(sp)
800067c8:	00812c23          	sw	s0,24(sp)
800067cc:	02010413          	addi	s0,sp,32
800067d0:	fea42623          	sw	a0,-20(s0)
800067d4:	9cdf90ef          	jal	800001a0 <disable>
800067d8:	fec42583          	lw	a1,-20(s0)
800067dc:	00001517          	auipc	a0,0x1
800067e0:	71050513          	addi	a0,a0,1808 # 80007eec <_ctype_+0x40c>
800067e4:	e60ff0ef          	jal	80005e44 <kprintf>
800067e8:	0000006f          	j	800067e8 <panic+0x28>

800067ec <platinit>:
800067ec:	ff010113          	addi	sp,sp,-16
800067f0:	00812623          	sw	s0,12(sp)
800067f4:	01010413          	addi	s0,sp,16
800067f8:	00000013          	nop
800067fc:	00c12403          	lw	s0,12(sp)
80006800:	01010113          	addi	sp,sp,16
80006804:	00008067          	ret

80006808 <enqueue>:
80006808:	fd010113          	addi	sp,sp,-48
8000680c:	02812623          	sw	s0,44(sp)
80006810:	03010413          	addi	s0,sp,48
80006814:	fca42e23          	sw	a0,-36(s0)
80006818:	00058793          	mv	a5,a1
8000681c:	fcf41d23          	sh	a5,-38(s0)
80006820:	fda41703          	lh	a4,-38(s0)
80006824:	00900793          	li	a5,9
80006828:	04e7d263          	bge	a5,a4,8000686c <enqueue+0x64>
8000682c:	fda41703          	lh	a4,-38(s0)
80006830:	02000793          	li	a5,32
80006834:	02e7cc63          	blt	a5,a4,8000686c <enqueue+0x64>
80006838:	fdc42783          	lw	a5,-36(s0)
8000683c:	0207c863          	bltz	a5,8000686c <enqueue+0x64>
80006840:	fdc42703          	lw	a4,-36(s0)
80006844:	00900793          	li	a5,9
80006848:	02e7c263          	blt	a5,a4,8000686c <enqueue+0x64>
8000684c:	00002717          	auipc	a4,0x2
80006850:	88c70713          	addi	a4,a4,-1908 # 800080d8 <proctab>
80006854:	fdc42683          	lw	a3,-36(s0)
80006858:	05400793          	li	a5,84
8000685c:	02f687b3          	mul	a5,a3,a5
80006860:	00f707b3          	add	a5,a4,a5
80006864:	0007d783          	lhu	a5,0(a5)
80006868:	00079663          	bnez	a5,80006874 <enqueue+0x6c>
8000686c:	fff00793          	li	a5,-1
80006870:	0b80006f          	j	80006928 <enqueue+0x120>
80006874:	fda45783          	lhu	a5,-38(s0)
80006878:	00178793          	addi	a5,a5,1
8000687c:	01079793          	slli	a5,a5,0x10
80006880:	0107d793          	srli	a5,a5,0x10
80006884:	fef41723          	sh	a5,-18(s0)
80006888:	fee41783          	lh	a5,-18(s0)
8000688c:	00002717          	auipc	a4,0x2
80006890:	c0c70713          	addi	a4,a4,-1012 # 80008498 <queuetab>
80006894:	00379793          	slli	a5,a5,0x3
80006898:	00f707b3          	add	a5,a4,a5
8000689c:	0067d783          	lhu	a5,6(a5)
800068a0:	fef41623          	sh	a5,-20(s0)
800068a4:	00002717          	auipc	a4,0x2
800068a8:	bf470713          	addi	a4,a4,-1036 # 80008498 <queuetab>
800068ac:	fdc42783          	lw	a5,-36(s0)
800068b0:	00379793          	slli	a5,a5,0x3
800068b4:	00f707b3          	add	a5,a4,a5
800068b8:	fee45703          	lhu	a4,-18(s0)
800068bc:	00e79223          	sh	a4,4(a5)
800068c0:	00002717          	auipc	a4,0x2
800068c4:	bd870713          	addi	a4,a4,-1064 # 80008498 <queuetab>
800068c8:	fdc42783          	lw	a5,-36(s0)
800068cc:	00379793          	slli	a5,a5,0x3
800068d0:	00f707b3          	add	a5,a4,a5
800068d4:	fec45703          	lhu	a4,-20(s0)
800068d8:	00e79323          	sh	a4,6(a5)
800068dc:	fec41783          	lh	a5,-20(s0)
800068e0:	fdc42703          	lw	a4,-36(s0)
800068e4:	01071713          	slli	a4,a4,0x10
800068e8:	41075713          	srai	a4,a4,0x10
800068ec:	00002697          	auipc	a3,0x2
800068f0:	bac68693          	addi	a3,a3,-1108 # 80008498 <queuetab>
800068f4:	00379793          	slli	a5,a5,0x3
800068f8:	00f687b3          	add	a5,a3,a5
800068fc:	00e79223          	sh	a4,4(a5)
80006900:	fee41783          	lh	a5,-18(s0)
80006904:	fdc42703          	lw	a4,-36(s0)
80006908:	01071713          	slli	a4,a4,0x10
8000690c:	41075713          	srai	a4,a4,0x10
80006910:	00002697          	auipc	a3,0x2
80006914:	b8868693          	addi	a3,a3,-1144 # 80008498 <queuetab>
80006918:	00379793          	slli	a5,a5,0x3
8000691c:	00f687b3          	add	a5,a3,a5
80006920:	00e79323          	sh	a4,6(a5)
80006924:	fdc42783          	lw	a5,-36(s0)
80006928:	00078513          	mv	a0,a5
8000692c:	02c12403          	lw	s0,44(sp)
80006930:	03010113          	addi	sp,sp,48
80006934:	00008067          	ret

80006938 <dequeue>:
80006938:	fd010113          	addi	sp,sp,-48
8000693c:	02112623          	sw	ra,44(sp)
80006940:	02812423          	sw	s0,40(sp)
80006944:	03010413          	addi	s0,sp,48
80006948:	00050793          	mv	a5,a0
8000694c:	fcf41f23          	sh	a5,-34(s0)
80006950:	fde41703          	lh	a4,-34(s0)
80006954:	00900793          	li	a5,9
80006958:	00e7d863          	bge	a5,a4,80006968 <dequeue+0x30>
8000695c:	fde41703          	lh	a4,-34(s0)
80006960:	02000793          	li	a5,32
80006964:	00e7d663          	bge	a5,a4,80006970 <dequeue+0x38>
80006968:	fff00793          	li	a5,-1
8000696c:	0780006f          	j	800069e4 <dequeue+0xac>
80006970:	fde41783          	lh	a5,-34(s0)
80006974:	00002717          	auipc	a4,0x2
80006978:	b2470713          	addi	a4,a4,-1244 # 80008498 <queuetab>
8000697c:	00379793          	slli	a5,a5,0x3
80006980:	00f707b3          	add	a5,a4,a5
80006984:	00479703          	lh	a4,4(a5)
80006988:	00900793          	li	a5,9
8000698c:	00e7d663          	bge	a5,a4,80006998 <dequeue+0x60>
80006990:	fff00793          	li	a5,-1
80006994:	0500006f          	j	800069e4 <dequeue+0xac>
80006998:	fde41783          	lh	a5,-34(s0)
8000699c:	00078513          	mv	a0,a5
800069a0:	058000ef          	jal	800069f8 <getfirst>
800069a4:	fea42623          	sw	a0,-20(s0)
800069a8:	00002717          	auipc	a4,0x2
800069ac:	af070713          	addi	a4,a4,-1296 # 80008498 <queuetab>
800069b0:	fec42783          	lw	a5,-20(s0)
800069b4:	00379793          	slli	a5,a5,0x3
800069b8:	00f707b3          	add	a5,a4,a5
800069bc:	fff00713          	li	a4,-1
800069c0:	00e79323          	sh	a4,6(a5)
800069c4:	00002717          	auipc	a4,0x2
800069c8:	ad470713          	addi	a4,a4,-1324 # 80008498 <queuetab>
800069cc:	fec42783          	lw	a5,-20(s0)
800069d0:	00379793          	slli	a5,a5,0x3
800069d4:	00f707b3          	add	a5,a4,a5
800069d8:	fff00713          	li	a4,-1
800069dc:	00e79223          	sh	a4,4(a5)
800069e0:	fec42783          	lw	a5,-20(s0)
800069e4:	00078513          	mv	a0,a5
800069e8:	02c12083          	lw	ra,44(sp)
800069ec:	02812403          	lw	s0,40(sp)
800069f0:	03010113          	addi	sp,sp,48
800069f4:	00008067          	ret

800069f8 <getfirst>:
800069f8:	fd010113          	addi	sp,sp,-48
800069fc:	02112623          	sw	ra,44(sp)
80006a00:	02812423          	sw	s0,40(sp)
80006a04:	03010413          	addi	s0,sp,48
80006a08:	00050793          	mv	a5,a0
80006a0c:	fcf41f23          	sh	a5,-34(s0)
80006a10:	fde41783          	lh	a5,-34(s0)
80006a14:	00002717          	auipc	a4,0x2
80006a18:	a8470713          	addi	a4,a4,-1404 # 80008498 <queuetab>
80006a1c:	00379793          	slli	a5,a5,0x3
80006a20:	00f707b3          	add	a5,a4,a5
80006a24:	00479703          	lh	a4,4(a5)
80006a28:	00900793          	li	a5,9
80006a2c:	00e7d663          	bge	a5,a4,80006a38 <getfirst+0x40>
80006a30:	fff00793          	li	a5,-1
80006a34:	0300006f          	j	80006a64 <getfirst+0x6c>
80006a38:	fde41783          	lh	a5,-34(s0)
80006a3c:	fef42623          	sw	a5,-20(s0)
80006a40:	00002717          	auipc	a4,0x2
80006a44:	a5870713          	addi	a4,a4,-1448 # 80008498 <queuetab>
80006a48:	fec42783          	lw	a5,-20(s0)
80006a4c:	00379793          	slli	a5,a5,0x3
80006a50:	00f707b3          	add	a5,a4,a5
80006a54:	00479783          	lh	a5,4(a5)
80006a58:	00078513          	mv	a0,a5
80006a5c:	0a0000ef          	jal	80006afc <getitem>
80006a60:	00050793          	mv	a5,a0
80006a64:	00078513          	mv	a0,a5
80006a68:	02c12083          	lw	ra,44(sp)
80006a6c:	02812403          	lw	s0,40(sp)
80006a70:	03010113          	addi	sp,sp,48
80006a74:	00008067          	ret

80006a78 <getlast>:
80006a78:	fd010113          	addi	sp,sp,-48
80006a7c:	02112623          	sw	ra,44(sp)
80006a80:	02812423          	sw	s0,40(sp)
80006a84:	03010413          	addi	s0,sp,48
80006a88:	00050793          	mv	a5,a0
80006a8c:	fcf41f23          	sh	a5,-34(s0)
80006a90:	fde41783          	lh	a5,-34(s0)
80006a94:	00002717          	auipc	a4,0x2
80006a98:	a0470713          	addi	a4,a4,-1532 # 80008498 <queuetab>
80006a9c:	00379793          	slli	a5,a5,0x3
80006aa0:	00f707b3          	add	a5,a4,a5
80006aa4:	00479703          	lh	a4,4(a5)
80006aa8:	00900793          	li	a5,9
80006aac:	00e7d663          	bge	a5,a4,80006ab8 <getlast+0x40>
80006ab0:	fff00793          	li	a5,-1
80006ab4:	0340006f          	j	80006ae8 <getlast+0x70>
80006ab8:	fde41783          	lh	a5,-34(s0)
80006abc:	00178793          	addi	a5,a5,1
80006ac0:	fef42623          	sw	a5,-20(s0)
80006ac4:	00002717          	auipc	a4,0x2
80006ac8:	9d470713          	addi	a4,a4,-1580 # 80008498 <queuetab>
80006acc:	fec42783          	lw	a5,-20(s0)
80006ad0:	00379793          	slli	a5,a5,0x3
80006ad4:	00f707b3          	add	a5,a4,a5
80006ad8:	00679783          	lh	a5,6(a5)
80006adc:	00078513          	mv	a0,a5
80006ae0:	01c000ef          	jal	80006afc <getitem>
80006ae4:	00050793          	mv	a5,a0
80006ae8:	00078513          	mv	a0,a5
80006aec:	02c12083          	lw	ra,44(sp)
80006af0:	02812403          	lw	s0,40(sp)
80006af4:	03010113          	addi	sp,sp,48
80006af8:	00008067          	ret

80006afc <getitem>:
80006afc:	fd010113          	addi	sp,sp,-48
80006b00:	02812623          	sw	s0,44(sp)
80006b04:	03010413          	addi	s0,sp,48
80006b08:	fca42e23          	sw	a0,-36(s0)
80006b0c:	00002717          	auipc	a4,0x2
80006b10:	98c70713          	addi	a4,a4,-1652 # 80008498 <queuetab>
80006b14:	fdc42783          	lw	a5,-36(s0)
80006b18:	00379793          	slli	a5,a5,0x3
80006b1c:	00f707b3          	add	a5,a4,a5
80006b20:	00479783          	lh	a5,4(a5)
80006b24:	fef42623          	sw	a5,-20(s0)
80006b28:	00002717          	auipc	a4,0x2
80006b2c:	97070713          	addi	a4,a4,-1680 # 80008498 <queuetab>
80006b30:	fdc42783          	lw	a5,-36(s0)
80006b34:	00379793          	slli	a5,a5,0x3
80006b38:	00f707b3          	add	a5,a4,a5
80006b3c:	00679783          	lh	a5,6(a5)
80006b40:	fef42423          	sw	a5,-24(s0)
80006b44:	fec42783          	lw	a5,-20(s0)
80006b48:	01079713          	slli	a4,a5,0x10
80006b4c:	41075713          	srai	a4,a4,0x10
80006b50:	00002697          	auipc	a3,0x2
80006b54:	94868693          	addi	a3,a3,-1720 # 80008498 <queuetab>
80006b58:	fe842783          	lw	a5,-24(s0)
80006b5c:	00379793          	slli	a5,a5,0x3
80006b60:	00f687b3          	add	a5,a3,a5
80006b64:	00e79223          	sh	a4,4(a5)
80006b68:	fe842783          	lw	a5,-24(s0)
80006b6c:	01079713          	slli	a4,a5,0x10
80006b70:	41075713          	srai	a4,a4,0x10
80006b74:	00002697          	auipc	a3,0x2
80006b78:	92468693          	addi	a3,a3,-1756 # 80008498 <queuetab>
80006b7c:	fec42783          	lw	a5,-20(s0)
80006b80:	00379793          	slli	a5,a5,0x3
80006b84:	00f687b3          	add	a5,a3,a5
80006b88:	00e79323          	sh	a4,6(a5)
80006b8c:	fdc42783          	lw	a5,-36(s0)
80006b90:	00078513          	mv	a0,a5
80006b94:	02c12403          	lw	s0,44(sp)
80006b98:	03010113          	addi	sp,sp,48
80006b9c:	00008067          	ret

80006ba0 <insert>:
80006ba0:	fd010113          	addi	sp,sp,-48
80006ba4:	02812623          	sw	s0,44(sp)
80006ba8:	03010413          	addi	s0,sp,48
80006bac:	fca42e23          	sw	a0,-36(s0)
80006bb0:	00058793          	mv	a5,a1
80006bb4:	fcc42a23          	sw	a2,-44(s0)
80006bb8:	fcf41d23          	sh	a5,-38(s0)
80006bbc:	fda41703          	lh	a4,-38(s0)
80006bc0:	00900793          	li	a5,9
80006bc4:	04e7d263          	bge	a5,a4,80006c08 <insert+0x68>
80006bc8:	fda41703          	lh	a4,-38(s0)
80006bcc:	02000793          	li	a5,32
80006bd0:	02e7cc63          	blt	a5,a4,80006c08 <insert+0x68>
80006bd4:	fdc42783          	lw	a5,-36(s0)
80006bd8:	0207c863          	bltz	a5,80006c08 <insert+0x68>
80006bdc:	fdc42703          	lw	a4,-36(s0)
80006be0:	00900793          	li	a5,9
80006be4:	02e7c263          	blt	a5,a4,80006c08 <insert+0x68>
80006be8:	00001717          	auipc	a4,0x1
80006bec:	4f070713          	addi	a4,a4,1264 # 800080d8 <proctab>
80006bf0:	fdc42683          	lw	a3,-36(s0)
80006bf4:	05400793          	li	a5,84
80006bf8:	02f687b3          	mul	a5,a3,a5
80006bfc:	00f707b3          	add	a5,a4,a5
80006c00:	0007d783          	lhu	a5,0(a5)
80006c04:	00079663          	bnez	a5,80006c10 <insert+0x70>
80006c08:	fff00793          	li	a5,-1
80006c0c:	11c0006f          	j	80006d28 <insert+0x188>
80006c10:	fda41783          	lh	a5,-38(s0)
80006c14:	00002717          	auipc	a4,0x2
80006c18:	88470713          	addi	a4,a4,-1916 # 80008498 <queuetab>
80006c1c:	00379793          	slli	a5,a5,0x3
80006c20:	00f707b3          	add	a5,a4,a5
80006c24:	0047d783          	lhu	a5,4(a5)
80006c28:	fef41723          	sh	a5,-18(s0)
80006c2c:	0200006f          	j	80006c4c <insert+0xac>
80006c30:	fee41783          	lh	a5,-18(s0)
80006c34:	00002717          	auipc	a4,0x2
80006c38:	86470713          	addi	a4,a4,-1948 # 80008498 <queuetab>
80006c3c:	00379793          	slli	a5,a5,0x3
80006c40:	00f707b3          	add	a5,a4,a5
80006c44:	0047d783          	lhu	a5,4(a5)
80006c48:	fef41723          	sh	a5,-18(s0)
80006c4c:	fee41783          	lh	a5,-18(s0)
80006c50:	00002717          	auipc	a4,0x2
80006c54:	84870713          	addi	a4,a4,-1976 # 80008498 <queuetab>
80006c58:	00379793          	slli	a5,a5,0x3
80006c5c:	00f707b3          	add	a5,a4,a5
80006c60:	0007a783          	lw	a5,0(a5)
80006c64:	fd442703          	lw	a4,-44(s0)
80006c68:	fce7d4e3          	bge	a5,a4,80006c30 <insert+0x90>
80006c6c:	fee41783          	lh	a5,-18(s0)
80006c70:	00002717          	auipc	a4,0x2
80006c74:	82870713          	addi	a4,a4,-2008 # 80008498 <queuetab>
80006c78:	00379793          	slli	a5,a5,0x3
80006c7c:	00f707b3          	add	a5,a4,a5
80006c80:	0067d783          	lhu	a5,6(a5)
80006c84:	fef41623          	sh	a5,-20(s0)
80006c88:	00002717          	auipc	a4,0x2
80006c8c:	81070713          	addi	a4,a4,-2032 # 80008498 <queuetab>
80006c90:	fdc42783          	lw	a5,-36(s0)
80006c94:	00379793          	slli	a5,a5,0x3
80006c98:	00f707b3          	add	a5,a4,a5
80006c9c:	fee45703          	lhu	a4,-18(s0)
80006ca0:	00e79223          	sh	a4,4(a5)
80006ca4:	00001717          	auipc	a4,0x1
80006ca8:	7f470713          	addi	a4,a4,2036 # 80008498 <queuetab>
80006cac:	fdc42783          	lw	a5,-36(s0)
80006cb0:	00379793          	slli	a5,a5,0x3
80006cb4:	00f707b3          	add	a5,a4,a5
80006cb8:	fec45703          	lhu	a4,-20(s0)
80006cbc:	00e79323          	sh	a4,6(a5)
80006cc0:	00001717          	auipc	a4,0x1
80006cc4:	7d870713          	addi	a4,a4,2008 # 80008498 <queuetab>
80006cc8:	fdc42783          	lw	a5,-36(s0)
80006ccc:	00379793          	slli	a5,a5,0x3
80006cd0:	00f707b3          	add	a5,a4,a5
80006cd4:	fd442703          	lw	a4,-44(s0)
80006cd8:	00e7a023          	sw	a4,0(a5)
80006cdc:	fec41783          	lh	a5,-20(s0)
80006ce0:	fdc42703          	lw	a4,-36(s0)
80006ce4:	01071713          	slli	a4,a4,0x10
80006ce8:	41075713          	srai	a4,a4,0x10
80006cec:	00001697          	auipc	a3,0x1
80006cf0:	7ac68693          	addi	a3,a3,1964 # 80008498 <queuetab>
80006cf4:	00379793          	slli	a5,a5,0x3
80006cf8:	00f687b3          	add	a5,a3,a5
80006cfc:	00e79223          	sh	a4,4(a5)
80006d00:	fee41783          	lh	a5,-18(s0)
80006d04:	fdc42703          	lw	a4,-36(s0)
80006d08:	01071713          	slli	a4,a4,0x10
80006d0c:	41075713          	srai	a4,a4,0x10
80006d10:	00001697          	auipc	a3,0x1
80006d14:	78868693          	addi	a3,a3,1928 # 80008498 <queuetab>
80006d18:	00379793          	slli	a5,a5,0x3
80006d1c:	00f687b3          	add	a5,a3,a5
80006d20:	00e79323          	sh	a4,6(a5)
80006d24:	00100793          	li	a5,1
80006d28:	00078513          	mv	a0,a5
80006d2c:	02c12403          	lw	s0,44(sp)
80006d30:	03010113          	addi	sp,sp,48
80006d34:	00008067          	ret

80006d38 <insertd>:
80006d38:	fd010113          	addi	sp,sp,-48
80006d3c:	02812623          	sw	s0,44(sp)
80006d40:	03010413          	addi	s0,sp,48
80006d44:	fca42e23          	sw	a0,-36(s0)
80006d48:	00058793          	mv	a5,a1
80006d4c:	fcc42a23          	sw	a2,-44(s0)
80006d50:	fcf41d23          	sh	a5,-38(s0)
80006d54:	fda41703          	lh	a4,-38(s0)
80006d58:	00900793          	li	a5,9
80006d5c:	04e7d263          	bge	a5,a4,80006da0 <insertd+0x68>
80006d60:	fda41703          	lh	a4,-38(s0)
80006d64:	02000793          	li	a5,32
80006d68:	02e7cc63          	blt	a5,a4,80006da0 <insertd+0x68>
80006d6c:	fdc42783          	lw	a5,-36(s0)
80006d70:	0207c863          	bltz	a5,80006da0 <insertd+0x68>
80006d74:	fdc42703          	lw	a4,-36(s0)
80006d78:	00900793          	li	a5,9
80006d7c:	02e7c263          	blt	a5,a4,80006da0 <insertd+0x68>
80006d80:	00001717          	auipc	a4,0x1
80006d84:	35870713          	addi	a4,a4,856 # 800080d8 <proctab>
80006d88:	fdc42683          	lw	a3,-36(s0)
80006d8c:	05400793          	li	a5,84
80006d90:	02f687b3          	mul	a5,a3,a5
80006d94:	00f707b3          	add	a5,a4,a5
80006d98:	0007d783          	lhu	a5,0(a5)
80006d9c:	00079663          	bnez	a5,80006da8 <insertd+0x70>
80006da0:	fff00793          	li	a5,-1
80006da4:	19c0006f          	j	80006f40 <insertd+0x208>
80006da8:	fda41783          	lh	a5,-38(s0)
80006dac:	fef42423          	sw	a5,-24(s0)
80006db0:	fda41783          	lh	a5,-38(s0)
80006db4:	00001717          	auipc	a4,0x1
80006db8:	6e470713          	addi	a4,a4,1764 # 80008498 <queuetab>
80006dbc:	00379793          	slli	a5,a5,0x3
80006dc0:	00f707b3          	add	a5,a4,a5
80006dc4:	00479783          	lh	a5,4(a5)
80006dc8:	fef42623          	sw	a5,-20(s0)
80006dcc:	04c0006f          	j	80006e18 <insertd+0xe0>
80006dd0:	00001717          	auipc	a4,0x1
80006dd4:	6c870713          	addi	a4,a4,1736 # 80008498 <queuetab>
80006dd8:	fec42783          	lw	a5,-20(s0)
80006ddc:	00379793          	slli	a5,a5,0x3
80006de0:	00f707b3          	add	a5,a4,a5
80006de4:	0007a783          	lw	a5,0(a5)
80006de8:	fd442703          	lw	a4,-44(s0)
80006dec:	40f707b3          	sub	a5,a4,a5
80006df0:	fcf42a23          	sw	a5,-44(s0)
80006df4:	fec42783          	lw	a5,-20(s0)
80006df8:	fef42423          	sw	a5,-24(s0)
80006dfc:	00001717          	auipc	a4,0x1
80006e00:	69c70713          	addi	a4,a4,1692 # 80008498 <queuetab>
80006e04:	fec42783          	lw	a5,-20(s0)
80006e08:	00379793          	slli	a5,a5,0x3
80006e0c:	00f707b3          	add	a5,a4,a5
80006e10:	00479783          	lh	a5,4(a5)
80006e14:	fef42623          	sw	a5,-20(s0)
80006e18:	fda41783          	lh	a5,-38(s0)
80006e1c:	00178793          	addi	a5,a5,1
80006e20:	fec42703          	lw	a4,-20(s0)
80006e24:	02f70263          	beq	a4,a5,80006e48 <insertd+0x110>
80006e28:	00001717          	auipc	a4,0x1
80006e2c:	67070713          	addi	a4,a4,1648 # 80008498 <queuetab>
80006e30:	fec42783          	lw	a5,-20(s0)
80006e34:	00379793          	slli	a5,a5,0x3
80006e38:	00f707b3          	add	a5,a4,a5
80006e3c:	0007a783          	lw	a5,0(a5)
80006e40:	fd442703          	lw	a4,-44(s0)
80006e44:	f8f756e3          	bge	a4,a5,80006dd0 <insertd+0x98>
80006e48:	fec42783          	lw	a5,-20(s0)
80006e4c:	01079713          	slli	a4,a5,0x10
80006e50:	41075713          	srai	a4,a4,0x10
80006e54:	00001697          	auipc	a3,0x1
80006e58:	64468693          	addi	a3,a3,1604 # 80008498 <queuetab>
80006e5c:	fdc42783          	lw	a5,-36(s0)
80006e60:	00379793          	slli	a5,a5,0x3
80006e64:	00f687b3          	add	a5,a3,a5
80006e68:	00e79223          	sh	a4,4(a5)
80006e6c:	fe842783          	lw	a5,-24(s0)
80006e70:	01079713          	slli	a4,a5,0x10
80006e74:	41075713          	srai	a4,a4,0x10
80006e78:	00001697          	auipc	a3,0x1
80006e7c:	62068693          	addi	a3,a3,1568 # 80008498 <queuetab>
80006e80:	fdc42783          	lw	a5,-36(s0)
80006e84:	00379793          	slli	a5,a5,0x3
80006e88:	00f687b3          	add	a5,a3,a5
80006e8c:	00e79323          	sh	a4,6(a5)
80006e90:	00001717          	auipc	a4,0x1
80006e94:	60870713          	addi	a4,a4,1544 # 80008498 <queuetab>
80006e98:	fdc42783          	lw	a5,-36(s0)
80006e9c:	00379793          	slli	a5,a5,0x3
80006ea0:	00f707b3          	add	a5,a4,a5
80006ea4:	fd442703          	lw	a4,-44(s0)
80006ea8:	00e7a023          	sw	a4,0(a5)
80006eac:	fdc42783          	lw	a5,-36(s0)
80006eb0:	01079713          	slli	a4,a5,0x10
80006eb4:	41075713          	srai	a4,a4,0x10
80006eb8:	00001697          	auipc	a3,0x1
80006ebc:	5e068693          	addi	a3,a3,1504 # 80008498 <queuetab>
80006ec0:	fe842783          	lw	a5,-24(s0)
80006ec4:	00379793          	slli	a5,a5,0x3
80006ec8:	00f687b3          	add	a5,a3,a5
80006ecc:	00e79223          	sh	a4,4(a5)
80006ed0:	fdc42783          	lw	a5,-36(s0)
80006ed4:	01079713          	slli	a4,a5,0x10
80006ed8:	41075713          	srai	a4,a4,0x10
80006edc:	00001697          	auipc	a3,0x1
80006ee0:	5bc68693          	addi	a3,a3,1468 # 80008498 <queuetab>
80006ee4:	fec42783          	lw	a5,-20(s0)
80006ee8:	00379793          	slli	a5,a5,0x3
80006eec:	00f687b3          	add	a5,a3,a5
80006ef0:	00e79323          	sh	a4,6(a5)
80006ef4:	fda41783          	lh	a5,-38(s0)
80006ef8:	00178793          	addi	a5,a5,1
80006efc:	fec42703          	lw	a4,-20(s0)
80006f00:	02f70e63          	beq	a4,a5,80006f3c <insertd+0x204>
80006f04:	00001717          	auipc	a4,0x1
80006f08:	59470713          	addi	a4,a4,1428 # 80008498 <queuetab>
80006f0c:	fec42783          	lw	a5,-20(s0)
80006f10:	00379793          	slli	a5,a5,0x3
80006f14:	00f707b3          	add	a5,a4,a5
80006f18:	0007a703          	lw	a4,0(a5)
80006f1c:	fd442783          	lw	a5,-44(s0)
80006f20:	40f70733          	sub	a4,a4,a5
80006f24:	00001697          	auipc	a3,0x1
80006f28:	57468693          	addi	a3,a3,1396 # 80008498 <queuetab>
80006f2c:	fec42783          	lw	a5,-20(s0)
80006f30:	00379793          	slli	a5,a5,0x3
80006f34:	00f687b3          	add	a5,a3,a5
80006f38:	00e7a023          	sw	a4,0(a5)
80006f3c:	00100793          	li	a5,1
80006f40:	00078513          	mv	a0,a5
80006f44:	02c12403          	lw	s0,44(sp)
80006f48:	03010113          	addi	sp,sp,48
80006f4c:	00008067          	ret

80006f50 <newqueue>:
80006f50:	fe010113          	addi	sp,sp,-32
80006f54:	00812e23          	sw	s0,28(sp)
80006f58:	02010413          	addi	s0,sp,32
80006f5c:	00001797          	auipc	a5,0x1
80006f60:	16878793          	addi	a5,a5,360 # 800080c4 <nextqid.0>
80006f64:	0007d783          	lhu	a5,0(a5)
80006f68:	fef41723          	sh	a5,-18(s0)
80006f6c:	fee41703          	lh	a4,-18(s0)
80006f70:	02100793          	li	a5,33
80006f74:	00e7d663          	bge	a5,a4,80006f80 <newqueue+0x30>
80006f78:	fff00793          	li	a5,-1
80006f7c:	1080006f          	j	80007084 <newqueue+0x134>
80006f80:	00001797          	auipc	a5,0x1
80006f84:	14478793          	addi	a5,a5,324 # 800080c4 <nextqid.0>
80006f88:	00079783          	lh	a5,0(a5)
80006f8c:	01079793          	slli	a5,a5,0x10
80006f90:	0107d793          	srli	a5,a5,0x10
80006f94:	00278793          	addi	a5,a5,2
80006f98:	01079793          	slli	a5,a5,0x10
80006f9c:	0107d793          	srli	a5,a5,0x10
80006fa0:	01079713          	slli	a4,a5,0x10
80006fa4:	41075713          	srai	a4,a4,0x10
80006fa8:	00001797          	auipc	a5,0x1
80006fac:	11c78793          	addi	a5,a5,284 # 800080c4 <nextqid.0>
80006fb0:	00e79023          	sh	a4,0(a5)
80006fb4:	fee45783          	lhu	a5,-18(s0)
80006fb8:	00178793          	addi	a5,a5,1
80006fbc:	01079713          	slli	a4,a5,0x10
80006fc0:	01075713          	srli	a4,a4,0x10
80006fc4:	fee41783          	lh	a5,-18(s0)
80006fc8:	01071713          	slli	a4,a4,0x10
80006fcc:	41075713          	srai	a4,a4,0x10
80006fd0:	00001697          	auipc	a3,0x1
80006fd4:	4c868693          	addi	a3,a3,1224 # 80008498 <queuetab>
80006fd8:	00379793          	slli	a5,a5,0x3
80006fdc:	00f687b3          	add	a5,a3,a5
80006fe0:	00e79223          	sh	a4,4(a5)
80006fe4:	fee41783          	lh	a5,-18(s0)
80006fe8:	00001717          	auipc	a4,0x1
80006fec:	4b070713          	addi	a4,a4,1200 # 80008498 <queuetab>
80006ff0:	00379793          	slli	a5,a5,0x3
80006ff4:	00f707b3          	add	a5,a4,a5
80006ff8:	fff00713          	li	a4,-1
80006ffc:	00e79323          	sh	a4,6(a5)
80007000:	fee41783          	lh	a5,-18(s0)
80007004:	00001717          	auipc	a4,0x1
80007008:	49470713          	addi	a4,a4,1172 # 80008498 <queuetab>
8000700c:	00379793          	slli	a5,a5,0x3
80007010:	00f707b3          	add	a5,a4,a5
80007014:	80000737          	lui	a4,0x80000
80007018:	fff70713          	addi	a4,a4,-1 # 7fffffff <__stack_size+0x7fffefff>
8000701c:	00e7a023          	sw	a4,0(a5)
80007020:	fee41783          	lh	a5,-18(s0)
80007024:	00178793          	addi	a5,a5,1
80007028:	00001717          	auipc	a4,0x1
8000702c:	47070713          	addi	a4,a4,1136 # 80008498 <queuetab>
80007030:	00379793          	slli	a5,a5,0x3
80007034:	00f707b3          	add	a5,a4,a5
80007038:	fff00713          	li	a4,-1
8000703c:	00e79223          	sh	a4,4(a5)
80007040:	fee41783          	lh	a5,-18(s0)
80007044:	00178793          	addi	a5,a5,1
80007048:	00001717          	auipc	a4,0x1
8000704c:	45070713          	addi	a4,a4,1104 # 80008498 <queuetab>
80007050:	00379793          	slli	a5,a5,0x3
80007054:	00f707b3          	add	a5,a4,a5
80007058:	fee45703          	lhu	a4,-18(s0)
8000705c:	00e79323          	sh	a4,6(a5)
80007060:	fee41783          	lh	a5,-18(s0)
80007064:	00178793          	addi	a5,a5,1
80007068:	00001717          	auipc	a4,0x1
8000706c:	43070713          	addi	a4,a4,1072 # 80008498 <queuetab>
80007070:	00379793          	slli	a5,a5,0x3
80007074:	00f707b3          	add	a5,a4,a5
80007078:	80000737          	lui	a4,0x80000
8000707c:	00e7a023          	sw	a4,0(a5)
80007080:	fee41783          	lh	a5,-18(s0)
80007084:	00078513          	mv	a0,a5
80007088:	01c12403          	lw	s0,28(sp)
8000708c:	02010113          	addi	sp,sp,32
80007090:	00008067          	ret

80007094 <semcreate>:
80007094:	fd010113          	addi	sp,sp,-48
80007098:	02112623          	sw	ra,44(sp)
8000709c:	02812423          	sw	s0,40(sp)
800070a0:	03010413          	addi	s0,sp,48
800070a4:	fca42e23          	sw	a0,-36(s0)
800070a8:	8f8f90ef          	jal	800001a0 <disable>
800070ac:	fea42623          	sw	a0,-20(s0)
800070b0:	fdc42783          	lw	a5,-36(s0)
800070b4:	0007cc63          	bltz	a5,800070cc <semcreate+0x38>
800070b8:	06c000ef          	jal	80007124 <newsem>
800070bc:	fea42423          	sw	a0,-24(s0)
800070c0:	fe842703          	lw	a4,-24(s0)
800070c4:	fff00793          	li	a5,-1
800070c8:	00f71a63          	bne	a4,a5,800070dc <semcreate+0x48>
800070cc:	fec42503          	lw	a0,-20(s0)
800070d0:	8e0f90ef          	jal	800001b0 <restore>
800070d4:	fff00793          	li	a5,-1
800070d8:	0380006f          	j	80007110 <semcreate+0x7c>
800070dc:	00001697          	auipc	a3,0x1
800070e0:	34468693          	addi	a3,a3,836 # 80008420 <semtab>
800070e4:	fe842703          	lw	a4,-24(s0)
800070e8:	00070793          	mv	a5,a4
800070ec:	00179793          	slli	a5,a5,0x1
800070f0:	00e787b3          	add	a5,a5,a4
800070f4:	00279793          	slli	a5,a5,0x2
800070f8:	00f687b3          	add	a5,a3,a5
800070fc:	fdc42703          	lw	a4,-36(s0)
80007100:	00e7a223          	sw	a4,4(a5)
80007104:	fec42503          	lw	a0,-20(s0)
80007108:	8a8f90ef          	jal	800001b0 <restore>
8000710c:	fe842783          	lw	a5,-24(s0)
80007110:	00078513          	mv	a0,a5
80007114:	02c12083          	lw	ra,44(sp)
80007118:	02812403          	lw	s0,40(sp)
8000711c:	03010113          	addi	sp,sp,48
80007120:	00008067          	ret

80007124 <newsem>:
80007124:	fe010113          	addi	sp,sp,-32
80007128:	00812e23          	sw	s0,28(sp)
8000712c:	02010413          	addi	s0,sp,32
80007130:	fe042623          	sw	zero,-20(s0)
80007134:	0a80006f          	j	800071dc <newsem+0xb8>
80007138:	00001797          	auipc	a5,0x1
8000713c:	47078793          	addi	a5,a5,1136 # 800085a8 <nextsem.0>
80007140:	0007a783          	lw	a5,0(a5)
80007144:	00178693          	addi	a3,a5,1
80007148:	00001717          	auipc	a4,0x1
8000714c:	46070713          	addi	a4,a4,1120 # 800085a8 <nextsem.0>
80007150:	00d72023          	sw	a3,0(a4)
80007154:	fef42423          	sw	a5,-24(s0)
80007158:	00001797          	auipc	a5,0x1
8000715c:	45078793          	addi	a5,a5,1104 # 800085a8 <nextsem.0>
80007160:	0007a703          	lw	a4,0(a5)
80007164:	00900793          	li	a5,9
80007168:	00e7d863          	bge	a5,a4,80007178 <newsem+0x54>
8000716c:	00001797          	auipc	a5,0x1
80007170:	43c78793          	addi	a5,a5,1084 # 800085a8 <nextsem.0>
80007174:	0007a023          	sw	zero,0(a5)
80007178:	00001697          	auipc	a3,0x1
8000717c:	2a868693          	addi	a3,a3,680 # 80008420 <semtab>
80007180:	fe842703          	lw	a4,-24(s0)
80007184:	00070793          	mv	a5,a4
80007188:	00179793          	slli	a5,a5,0x1
8000718c:	00e787b3          	add	a5,a5,a4
80007190:	00279793          	slli	a5,a5,0x2
80007194:	00f687b3          	add	a5,a3,a5
80007198:	0007c783          	lbu	a5,0(a5)
8000719c:	02079a63          	bnez	a5,800071d0 <newsem+0xac>
800071a0:	00001697          	auipc	a3,0x1
800071a4:	28068693          	addi	a3,a3,640 # 80008420 <semtab>
800071a8:	fe842703          	lw	a4,-24(s0)
800071ac:	00070793          	mv	a5,a4
800071b0:	00179793          	slli	a5,a5,0x1
800071b4:	00e787b3          	add	a5,a5,a4
800071b8:	00279793          	slli	a5,a5,0x2
800071bc:	00f687b3          	add	a5,a3,a5
800071c0:	00100713          	li	a4,1
800071c4:	00e78023          	sb	a4,0(a5)
800071c8:	fe842783          	lw	a5,-24(s0)
800071cc:	0200006f          	j	800071ec <newsem+0xc8>
800071d0:	fec42783          	lw	a5,-20(s0)
800071d4:	00178793          	addi	a5,a5,1
800071d8:	fef42623          	sw	a5,-20(s0)
800071dc:	fec42703          	lw	a4,-20(s0)
800071e0:	00900793          	li	a5,9
800071e4:	f4e7dae3          	bge	a5,a4,80007138 <newsem+0x14>
800071e8:	fff00793          	li	a5,-1
800071ec:	00078513          	mv	a0,a5
800071f0:	01c12403          	lw	s0,28(sp)
800071f4:	02010113          	addi	sp,sp,32
800071f8:	00008067          	ret

800071fc <semcount>:
800071fc:	fd010113          	addi	sp,sp,-48
80007200:	02112623          	sw	ra,44(sp)
80007204:	02812423          	sw	s0,40(sp)
80007208:	03010413          	addi	s0,sp,48
8000720c:	fca42e23          	sw	a0,-36(s0)
80007210:	f91f80ef          	jal	800001a0 <disable>
80007214:	fea42623          	sw	a0,-20(s0)
80007218:	fdc42783          	lw	a5,-36(s0)
8000721c:	0207cc63          	bltz	a5,80007254 <semcount+0x58>
80007220:	fdc42703          	lw	a4,-36(s0)
80007224:	00900793          	li	a5,9
80007228:	02e7c663          	blt	a5,a4,80007254 <semcount+0x58>
8000722c:	00001697          	auipc	a3,0x1
80007230:	1f468693          	addi	a3,a3,500 # 80008420 <semtab>
80007234:	fdc42703          	lw	a4,-36(s0)
80007238:	00070793          	mv	a5,a4
8000723c:	00179793          	slli	a5,a5,0x1
80007240:	00e787b3          	add	a5,a5,a4
80007244:	00279793          	slli	a5,a5,0x2
80007248:	00f687b3          	add	a5,a3,a5
8000724c:	0007c783          	lbu	a5,0(a5)
80007250:	00079a63          	bnez	a5,80007264 <semcount+0x68>
80007254:	fec42503          	lw	a0,-20(s0)
80007258:	f59f80ef          	jal	800001b0 <restore>
8000725c:	fff00793          	li	a5,-1
80007260:	0380006f          	j	80007298 <semcount+0x9c>
80007264:	00001697          	auipc	a3,0x1
80007268:	1bc68693          	addi	a3,a3,444 # 80008420 <semtab>
8000726c:	fdc42703          	lw	a4,-36(s0)
80007270:	00070793          	mv	a5,a4
80007274:	00179793          	slli	a5,a5,0x1
80007278:	00e787b3          	add	a5,a5,a4
8000727c:	00279793          	slli	a5,a5,0x2
80007280:	00f687b3          	add	a5,a3,a5
80007284:	0047a783          	lw	a5,4(a5)
80007288:	fef42423          	sw	a5,-24(s0)
8000728c:	fec42503          	lw	a0,-20(s0)
80007290:	f21f80ef          	jal	800001b0 <restore>
80007294:	fe842783          	lw	a5,-24(s0)
80007298:	00078513          	mv	a0,a5
8000729c:	02c12083          	lw	ra,44(sp)
800072a0:	02812403          	lw	s0,40(sp)
800072a4:	03010113          	addi	sp,sp,48
800072a8:	00008067          	ret

800072ac <semdelete>:
800072ac:	fd010113          	addi	sp,sp,-48
800072b0:	02112623          	sw	ra,44(sp)
800072b4:	02812423          	sw	s0,40(sp)
800072b8:	03010413          	addi	s0,sp,48
800072bc:	fca42e23          	sw	a0,-36(s0)
800072c0:	ee1f80ef          	jal	800001a0 <disable>
800072c4:	fea42623          	sw	a0,-20(s0)
800072c8:	fdc42783          	lw	a5,-36(s0)
800072cc:	0007c863          	bltz	a5,800072dc <semdelete+0x30>
800072d0:	fdc42703          	lw	a4,-36(s0)
800072d4:	00900793          	li	a5,9
800072d8:	00e7da63          	bge	a5,a4,800072ec <semdelete+0x40>
800072dc:	fec42503          	lw	a0,-20(s0)
800072e0:	ed1f80ef          	jal	800001b0 <restore>
800072e4:	fff00793          	li	a5,-1
800072e8:	0980006f          	j	80007380 <semdelete+0xd4>
800072ec:	fdc42703          	lw	a4,-36(s0)
800072f0:	00070793          	mv	a5,a4
800072f4:	00179793          	slli	a5,a5,0x1
800072f8:	00e787b3          	add	a5,a5,a4
800072fc:	00279793          	slli	a5,a5,0x2
80007300:	00001717          	auipc	a4,0x1
80007304:	12070713          	addi	a4,a4,288 # 80008420 <semtab>
80007308:	00e787b3          	add	a5,a5,a4
8000730c:	fef42423          	sw	a5,-24(s0)
80007310:	fe842783          	lw	a5,-24(s0)
80007314:	0007c783          	lbu	a5,0(a5)
80007318:	00079a63          	bnez	a5,8000732c <semdelete+0x80>
8000731c:	fec42503          	lw	a0,-20(s0)
80007320:	e91f80ef          	jal	800001b0 <restore>
80007324:	fff00793          	li	a5,-1
80007328:	0580006f          	j	80007380 <semdelete+0xd4>
8000732c:	fe842783          	lw	a5,-24(s0)
80007330:	00078023          	sb	zero,0(a5)
80007334:	0240006f          	j	80007358 <semdelete+0xac>
80007338:	fe842783          	lw	a5,-24(s0)
8000733c:	00879783          	lh	a5,8(a5)
80007340:	00078513          	mv	a0,a5
80007344:	eb4ff0ef          	jal	800069f8 <getfirst>
80007348:	00050793          	mv	a5,a0
8000734c:	00100593          	li	a1,1
80007350:	00078513          	mv	a0,a5
80007354:	bc4fe0ef          	jal	80005718 <ready>
80007358:	fe842783          	lw	a5,-24(s0)
8000735c:	0047a783          	lw	a5,4(a5)
80007360:	00178693          	addi	a3,a5,1
80007364:	fe842703          	lw	a4,-24(s0)
80007368:	00d72223          	sw	a3,4(a4)
8000736c:	fc07c6e3          	bltz	a5,80007338 <semdelete+0x8c>
80007370:	9f0fe0ef          	jal	80005560 <resched>
80007374:	fec42503          	lw	a0,-20(s0)
80007378:	e39f80ef          	jal	800001b0 <restore>
8000737c:	00100793          	li	a5,1
80007380:	00078513          	mv	a0,a5
80007384:	02c12083          	lw	ra,44(sp)
80007388:	02812403          	lw	s0,40(sp)
8000738c:	03010113          	addi	sp,sp,48
80007390:	00008067          	ret

80007394 <semreset>:
80007394:	fd010113          	addi	sp,sp,-48
80007398:	02112623          	sw	ra,44(sp)
8000739c:	02812423          	sw	s0,40(sp)
800073a0:	03010413          	addi	s0,sp,48
800073a4:	fca42e23          	sw	a0,-36(s0)
800073a8:	fcb42c23          	sw	a1,-40(s0)
800073ac:	df5f80ef          	jal	800001a0 <disable>
800073b0:	fea42623          	sw	a0,-20(s0)
800073b4:	fd842783          	lw	a5,-40(s0)
800073b8:	0407c063          	bltz	a5,800073f8 <semreset+0x64>
800073bc:	fdc42783          	lw	a5,-36(s0)
800073c0:	0207cc63          	bltz	a5,800073f8 <semreset+0x64>
800073c4:	fdc42703          	lw	a4,-36(s0)
800073c8:	00900793          	li	a5,9
800073cc:	02e7c663          	blt	a5,a4,800073f8 <semreset+0x64>
800073d0:	00001697          	auipc	a3,0x1
800073d4:	05068693          	addi	a3,a3,80 # 80008420 <semtab>
800073d8:	fdc42703          	lw	a4,-36(s0)
800073dc:	00070793          	mv	a5,a4
800073e0:	00179793          	slli	a5,a5,0x1
800073e4:	00e787b3          	add	a5,a5,a4
800073e8:	00279793          	slli	a5,a5,0x2
800073ec:	00f687b3          	add	a5,a3,a5
800073f0:	0007c783          	lbu	a5,0(a5)
800073f4:	00079a63          	bnez	a5,80007408 <semreset+0x74>
800073f8:	fec42503          	lw	a0,-20(s0)
800073fc:	db5f80ef          	jal	800001b0 <restore>
80007400:	fff00793          	li	a5,-1
80007404:	07c0006f          	j	80007480 <semreset+0xec>
80007408:	fdc42703          	lw	a4,-36(s0)
8000740c:	00070793          	mv	a5,a4
80007410:	00179793          	slli	a5,a5,0x1
80007414:	00e787b3          	add	a5,a5,a4
80007418:	00279793          	slli	a5,a5,0x2
8000741c:	00001717          	auipc	a4,0x1
80007420:	00470713          	addi	a4,a4,4 # 80008420 <semtab>
80007424:	00e787b3          	add	a5,a5,a4
80007428:	fef42423          	sw	a5,-24(s0)
8000742c:	fe842783          	lw	a5,-24(s0)
80007430:	0087d783          	lhu	a5,8(a5)
80007434:	fef41323          	sh	a5,-26(s0)
80007438:	0100006f          	j	80007448 <semreset+0xb4>
8000743c:	00100593          	li	a1,1
80007440:	fe042503          	lw	a0,-32(s0)
80007444:	ad4fe0ef          	jal	80005718 <ready>
80007448:	fe641783          	lh	a5,-26(s0)
8000744c:	00078513          	mv	a0,a5
80007450:	da8ff0ef          	jal	800069f8 <getfirst>
80007454:	fea42023          	sw	a0,-32(s0)
80007458:	fe042703          	lw	a4,-32(s0)
8000745c:	fff00793          	li	a5,-1
80007460:	fcf71ee3          	bne	a4,a5,8000743c <semreset+0xa8>
80007464:	fe842783          	lw	a5,-24(s0)
80007468:	fd842703          	lw	a4,-40(s0)
8000746c:	00e7a223          	sw	a4,4(a5)
80007470:	8f0fe0ef          	jal	80005560 <resched>
80007474:	fec42503          	lw	a0,-20(s0)
80007478:	d39f80ef          	jal	800001b0 <restore>
8000747c:	00100793          	li	a5,1
80007480:	00078513          	mv	a0,a5
80007484:	02c12083          	lw	ra,44(sp)
80007488:	02812403          	lw	s0,40(sp)
8000748c:	03010113          	addi	sp,sp,48
80007490:	00008067          	ret

80007494 <setupStack>:
80007494:	fc010113          	addi	sp,sp,-64
80007498:	02812e23          	sw	s0,60(sp)
8000749c:	04010413          	addi	s0,sp,64
800074a0:	fca42e23          	sw	a0,-36(s0)
800074a4:	fcb42c23          	sw	a1,-40(s0)
800074a8:	fcc42a23          	sw	a2,-44(s0)
800074ac:	fcd42823          	sw	a3,-48(s0)
800074b0:	fce42623          	sw	a4,-52(s0)
800074b4:	fdc42783          	lw	a5,-36(s0)
800074b8:	fef42623          	sw	a5,-20(s0)
800074bc:	fd042703          	lw	a4,-48(s0)
800074c0:	00800793          	li	a5,8
800074c4:	02e7f663          	bgeu	a5,a4,800074f0 <setupStack+0x5c>
800074c8:	fd042783          	lw	a5,-48(s0)
800074cc:	ff878793          	addi	a5,a5,-8
800074d0:	fef42023          	sw	a5,-32(s0)
800074d4:	fe042783          	lw	a5,-32(s0)
800074d8:	00279793          	slli	a5,a5,0x2
800074dc:	40f007b3          	neg	a5,a5
800074e0:	fec42703          	lw	a4,-20(s0)
800074e4:	00f707b3          	add	a5,a4,a5
800074e8:	fef42623          	sw	a5,-20(s0)
800074ec:	0080006f          	j	800074f4 <setupStack+0x60>
800074f0:	fe042023          	sw	zero,-32(s0)
800074f4:	fec42783          	lw	a5,-20(s0)
800074f8:	fa478793          	addi	a5,a5,-92
800074fc:	fef42623          	sw	a5,-20(s0)
80007500:	0100006f          	j	80007510 <setupStack+0x7c>
80007504:	fec42783          	lw	a5,-20(s0)
80007508:	fff78793          	addi	a5,a5,-1
8000750c:	fef42623          	sw	a5,-20(s0)
80007510:	fec42783          	lw	a5,-20(s0)
80007514:	00f7f793          	andi	a5,a5,15
80007518:	fe0796e3          	bnez	a5,80007504 <setupStack+0x70>
8000751c:	fe042423          	sw	zero,-24(s0)
80007520:	fe842783          	lw	a5,-24(s0)
80007524:	00178713          	addi	a4,a5,1
80007528:	fee42423          	sw	a4,-24(s0)
8000752c:	00279793          	slli	a5,a5,0x2
80007530:	fec42703          	lw	a4,-20(s0)
80007534:	00f707b3          	add	a5,a4,a5
80007538:	fd842703          	lw	a4,-40(s0)
8000753c:	00e7a023          	sw	a4,0(a5)
80007540:	fe842783          	lw	a5,-24(s0)
80007544:	00178713          	addi	a4,a5,1
80007548:	fee42423          	sw	a4,-24(s0)
8000754c:	00279793          	slli	a5,a5,0x2
80007550:	fec42703          	lw	a4,-20(s0)
80007554:	00f707b3          	add	a5,a4,a5
80007558:	fd442703          	lw	a4,-44(s0)
8000755c:	00e7a023          	sw	a4,0(a5)
80007560:	fe842783          	lw	a5,-24(s0)
80007564:	00178713          	addi	a4,a5,1
80007568:	fee42423          	sw	a4,-24(s0)
8000756c:	00279793          	slli	a5,a5,0x2
80007570:	fec42703          	lw	a4,-20(s0)
80007574:	00f707b3          	add	a5,a4,a5
80007578:	00002737          	lui	a4,0x2
8000757c:	88870713          	addi	a4,a4,-1912 # 1888 <__stack_size+0x888>
80007580:	00e7a023          	sw	a4,0(a5)
80007584:	0240006f          	j	800075a8 <setupStack+0x114>
80007588:	fe842783          	lw	a5,-24(s0)
8000758c:	00279793          	slli	a5,a5,0x2
80007590:	fec42703          	lw	a4,-20(s0)
80007594:	00f707b3          	add	a5,a4,a5
80007598:	0007a023          	sw	zero,0(a5)
8000759c:	fe842783          	lw	a5,-24(s0)
800075a0:	00178793          	addi	a5,a5,1
800075a4:	fef42423          	sw	a5,-24(s0)
800075a8:	fe842703          	lw	a4,-24(s0)
800075ac:	00e00793          	li	a5,14
800075b0:	fce7fce3          	bgeu	a5,a4,80007588 <setupStack+0xf4>
800075b4:	fe042223          	sw	zero,-28(s0)
800075b8:	03c0006f          	j	800075f4 <setupStack+0x160>
800075bc:	fe842783          	lw	a5,-24(s0)
800075c0:	00178713          	addi	a4,a5,1
800075c4:	fee42423          	sw	a4,-24(s0)
800075c8:	00279793          	slli	a5,a5,0x2
800075cc:	fec42703          	lw	a4,-20(s0)
800075d0:	00f70733          	add	a4,a4,a5
800075d4:	fcc42783          	lw	a5,-52(s0)
800075d8:	00478693          	addi	a3,a5,4
800075dc:	fcd42623          	sw	a3,-52(s0)
800075e0:	0007a783          	lw	a5,0(a5)
800075e4:	00f72023          	sw	a5,0(a4)
800075e8:	fe442783          	lw	a5,-28(s0)
800075ec:	00178793          	addi	a5,a5,1
800075f0:	fef42223          	sw	a5,-28(s0)
800075f4:	fe442783          	lw	a5,-28(s0)
800075f8:	fd042703          	lw	a4,-48(s0)
800075fc:	fce7e0e3          	bltu	a5,a4,800075bc <setupStack+0x128>
80007600:	0240006f          	j	80007624 <setupStack+0x190>
80007604:	fe842783          	lw	a5,-24(s0)
80007608:	00279793          	slli	a5,a5,0x2
8000760c:	fec42703          	lw	a4,-20(s0)
80007610:	00f707b3          	add	a5,a4,a5
80007614:	0007a023          	sw	zero,0(a5)
80007618:	fe842783          	lw	a5,-24(s0)
8000761c:	00178793          	addi	a5,a5,1
80007620:	fef42423          	sw	a5,-24(s0)
80007624:	fe842703          	lw	a4,-24(s0)
80007628:	01600793          	li	a5,22
8000762c:	fce7fce3          	bgeu	a5,a4,80007604 <setupStack+0x170>
80007630:	fec42783          	lw	a5,-20(s0)
80007634:	00078513          	mv	a0,a5
80007638:	03c12403          	lw	s0,60(sp)
8000763c:	04010113          	addi	sp,sp,64
80007640:	00008067          	ret

80007644 <signal>:
80007644:	fd010113          	addi	sp,sp,-48
80007648:	02112623          	sw	ra,44(sp)
8000764c:	02812423          	sw	s0,40(sp)
80007650:	03010413          	addi	s0,sp,48
80007654:	fca42e23          	sw	a0,-36(s0)
80007658:	b49f80ef          	jal	800001a0 <disable>
8000765c:	fea42623          	sw	a0,-20(s0)
80007660:	fdc42783          	lw	a5,-36(s0)
80007664:	0007c863          	bltz	a5,80007674 <signal+0x30>
80007668:	fdc42703          	lw	a4,-36(s0)
8000766c:	00900793          	li	a5,9
80007670:	00e7da63          	bge	a5,a4,80007684 <signal+0x40>
80007674:	fec42503          	lw	a0,-20(s0)
80007678:	b39f80ef          	jal	800001b0 <restore>
8000767c:	fff00793          	li	a5,-1
80007680:	0880006f          	j	80007708 <signal+0xc4>
80007684:	fdc42703          	lw	a4,-36(s0)
80007688:	00070793          	mv	a5,a4
8000768c:	00179793          	slli	a5,a5,0x1
80007690:	00e787b3          	add	a5,a5,a4
80007694:	00279793          	slli	a5,a5,0x2
80007698:	00001717          	auipc	a4,0x1
8000769c:	d8870713          	addi	a4,a4,-632 # 80008420 <semtab>
800076a0:	00e787b3          	add	a5,a5,a4
800076a4:	fef42423          	sw	a5,-24(s0)
800076a8:	fe842783          	lw	a5,-24(s0)
800076ac:	0007c783          	lbu	a5,0(a5)
800076b0:	00079a63          	bnez	a5,800076c4 <signal+0x80>
800076b4:	fec42503          	lw	a0,-20(s0)
800076b8:	af9f80ef          	jal	800001b0 <restore>
800076bc:	fff00793          	li	a5,-1
800076c0:	0480006f          	j	80007708 <signal+0xc4>
800076c4:	fe842783          	lw	a5,-24(s0)
800076c8:	0047a783          	lw	a5,4(a5)
800076cc:	00178693          	addi	a3,a5,1
800076d0:	fe842703          	lw	a4,-24(s0)
800076d4:	00d72223          	sw	a3,4(a4)
800076d8:	0207d263          	bgez	a5,800076fc <signal+0xb8>
800076dc:	fe842783          	lw	a5,-24(s0)
800076e0:	00879783          	lh	a5,8(a5)
800076e4:	00078513          	mv	a0,a5
800076e8:	a50ff0ef          	jal	80006938 <dequeue>
800076ec:	00050793          	mv	a5,a0
800076f0:	00100593          	li	a1,1
800076f4:	00078513          	mv	a0,a5
800076f8:	820fe0ef          	jal	80005718 <ready>
800076fc:	fec42503          	lw	a0,-20(s0)
80007700:	ab1f80ef          	jal	800001b0 <restore>
80007704:	00100793          	li	a5,1
80007708:	00078513          	mv	a0,a5
8000770c:	02c12083          	lw	ra,44(sp)
80007710:	02812403          	lw	s0,40(sp)
80007714:	03010113          	addi	sp,sp,48
80007718:	00008067          	ret

8000771c <signaln>:
8000771c:	fd010113          	addi	sp,sp,-48
80007720:	02112623          	sw	ra,44(sp)
80007724:	02812423          	sw	s0,40(sp)
80007728:	03010413          	addi	s0,sp,48
8000772c:	fca42e23          	sw	a0,-36(s0)
80007730:	fcb42c23          	sw	a1,-40(s0)
80007734:	a6df80ef          	jal	800001a0 <disable>
80007738:	fea42623          	sw	a0,-20(s0)
8000773c:	fdc42783          	lw	a5,-36(s0)
80007740:	0007cc63          	bltz	a5,80007758 <signaln+0x3c>
80007744:	fdc42703          	lw	a4,-36(s0)
80007748:	00900793          	li	a5,9
8000774c:	00e7c663          	blt	a5,a4,80007758 <signaln+0x3c>
80007750:	fd842783          	lw	a5,-40(s0)
80007754:	0007da63          	bgez	a5,80007768 <signaln+0x4c>
80007758:	fec42503          	lw	a0,-20(s0)
8000775c:	a55f80ef          	jal	800001b0 <restore>
80007760:	fff00793          	li	a5,-1
80007764:	0a00006f          	j	80007804 <signaln+0xe8>
80007768:	fdc42703          	lw	a4,-36(s0)
8000776c:	00070793          	mv	a5,a4
80007770:	00179793          	slli	a5,a5,0x1
80007774:	00e787b3          	add	a5,a5,a4
80007778:	00279793          	slli	a5,a5,0x2
8000777c:	00001717          	auipc	a4,0x1
80007780:	ca470713          	addi	a4,a4,-860 # 80008420 <semtab>
80007784:	00e787b3          	add	a5,a5,a4
80007788:	fef42423          	sw	a5,-24(s0)
8000778c:	fe842783          	lw	a5,-24(s0)
80007790:	0007c783          	lbu	a5,0(a5)
80007794:	04079c63          	bnez	a5,800077ec <signaln+0xd0>
80007798:	fec42503          	lw	a0,-20(s0)
8000779c:	a15f80ef          	jal	800001b0 <restore>
800077a0:	fff00793          	li	a5,-1
800077a4:	0600006f          	j	80007804 <signaln+0xe8>
800077a8:	fe842783          	lw	a5,-24(s0)
800077ac:	0047a783          	lw	a5,4(a5)
800077b0:	00178693          	addi	a3,a5,1
800077b4:	fe842703          	lw	a4,-24(s0)
800077b8:	00d72223          	sw	a3,4(a4)
800077bc:	0207d263          	bgez	a5,800077e0 <signaln+0xc4>
800077c0:	fe842783          	lw	a5,-24(s0)
800077c4:	00879783          	lh	a5,8(a5)
800077c8:	00078513          	mv	a0,a5
800077cc:	96cff0ef          	jal	80006938 <dequeue>
800077d0:	00050793          	mv	a5,a0
800077d4:	00000593          	li	a1,0
800077d8:	00078513          	mv	a0,a5
800077dc:	f3dfd0ef          	jal	80005718 <ready>
800077e0:	fd842783          	lw	a5,-40(s0)
800077e4:	fff78793          	addi	a5,a5,-1
800077e8:	fcf42c23          	sw	a5,-40(s0)
800077ec:	fd842783          	lw	a5,-40(s0)
800077f0:	faf04ce3          	bgtz	a5,800077a8 <signaln+0x8c>
800077f4:	d6dfd0ef          	jal	80005560 <resched>
800077f8:	fec42503          	lw	a0,-20(s0)
800077fc:	9b5f80ef          	jal	800001b0 <restore>
80007800:	00100793          	li	a5,1
80007804:	00078513          	mv	a0,a5
80007808:	02c12083          	lw	ra,44(sp)
8000780c:	02812403          	lw	s0,40(sp)
80007810:	03010113          	addi	sp,sp,48
80007814:	00008067          	ret

80007818 <do_syscall>:
80007818:	fc010113          	addi	sp,sp,-64
8000781c:	02812e23          	sw	s0,60(sp)
80007820:	04010413          	addi	s0,sp,64
80007824:	fca42623          	sw	a0,-52(s0)
80007828:	fcc42783          	lw	a5,-52(s0)
8000782c:	0347a783          	lw	a5,52(a5)
80007830:	fef42623          	sw	a5,-20(s0)
80007834:	fcc42783          	lw	a5,-52(s0)
80007838:	0387a783          	lw	a5,56(a5)
8000783c:	fef42423          	sw	a5,-24(s0)
80007840:	fcc42783          	lw	a5,-52(s0)
80007844:	03c7a783          	lw	a5,60(a5)
80007848:	fef42223          	sw	a5,-28(s0)
8000784c:	fcc42783          	lw	a5,-52(s0)
80007850:	0407a783          	lw	a5,64(a5)
80007854:	fef42023          	sw	a5,-32(s0)
80007858:	fcc42783          	lw	a5,-52(s0)
8000785c:	0447a783          	lw	a5,68(a5)
80007860:	fcf42e23          	sw	a5,-36(s0)
80007864:	fcc42783          	lw	a5,-52(s0)
80007868:	0487a783          	lw	a5,72(a5)
8000786c:	fcf42c23          	sw	a5,-40(s0)
80007870:	fcc42783          	lw	a5,-52(s0)
80007874:	0507a783          	lw	a5,80(a5)
80007878:	fcf42a23          	sw	a5,-44(s0)
8000787c:	fec42783          	lw	a5,-20(s0)
80007880:	fcf42823          	sw	a5,-48(s0)
80007884:	fcc42783          	lw	a5,-52(s0)
80007888:	00078513          	mv	a0,a5
8000788c:	03c12403          	lw	s0,60(sp)
80007890:	04010113          	addi	sp,sp,64
80007894:	00008067          	ret

80007898 <exception_dump_ctx>:
80007898:	fd010113          	addi	sp,sp,-48
8000789c:	02112623          	sw	ra,44(sp)
800078a0:	02812423          	sw	s0,40(sp)
800078a4:	03010413          	addi	s0,sp,48
800078a8:	fca42e23          	sw	a0,-36(s0)
800078ac:	fdc42783          	lw	a5,-36(s0)
800078b0:	0007a703          	lw	a4,0(a5)
800078b4:	fdc42783          	lw	a5,-36(s0)
800078b8:	0087a603          	lw	a2,8(a5)
800078bc:	fdc42783          	lw	a5,-36(s0)
800078c0:	0047a783          	lw	a5,4(a5)
800078c4:	00078693          	mv	a3,a5
800078c8:	00070593          	mv	a1,a4
800078cc:	00000517          	auipc	a0,0x0
800078d0:	63050513          	addi	a0,a0,1584 # 80007efc <_ctype_+0x41c>
800078d4:	d70fe0ef          	jal	80005e44 <kprintf>
800078d8:	fe042623          	sw	zero,-20(s0)
800078dc:	0380006f          	j	80007914 <exception_dump_ctx+0x7c>
800078e0:	fdc42703          	lw	a4,-36(s0)
800078e4:	fec42783          	lw	a5,-20(s0)
800078e8:	00279793          	slli	a5,a5,0x2
800078ec:	00f707b3          	add	a5,a4,a5
800078f0:	00c7a783          	lw	a5,12(a5)
800078f4:	00078613          	mv	a2,a5
800078f8:	fec42583          	lw	a1,-20(s0)
800078fc:	00000517          	auipc	a0,0x0
80007900:	62c50513          	addi	a0,a0,1580 # 80007f28 <_ctype_+0x448>
80007904:	d40fe0ef          	jal	80005e44 <kprintf>
80007908:	fec42783          	lw	a5,-20(s0)
8000790c:	00178793          	addi	a5,a5,1
80007910:	fef42623          	sw	a5,-20(s0)
80007914:	fec42703          	lw	a4,-20(s0)
80007918:	01f00793          	li	a5,31
8000791c:	fce7d2e3          	bge	a5,a4,800078e0 <exception_dump_ctx+0x48>
80007920:	0000006f          	j	80007920 <exception_dump_ctx+0x88>

80007924 <exceptionHandler>:
80007924:	fd010113          	addi	sp,sp,-48
80007928:	02112623          	sw	ra,44(sp)
8000792c:	02812423          	sw	s0,40(sp)
80007930:	03010413          	addi	s0,sp,48
80007934:	fca42e23          	sw	a0,-36(s0)
80007938:	fdc42783          	lw	a5,-36(s0)
8000793c:	0087a703          	lw	a4,8(a5)
80007940:	000017b7          	lui	a5,0x1
80007944:	fff78793          	addi	a5,a5,-1 # fff <__stack_size-0x1>
80007948:	00f777b3          	and	a5,a4,a5
8000794c:	fef42623          	sw	a5,-20(s0)
80007950:	fdc42783          	lw	a5,-36(s0)
80007954:	0087a783          	lw	a5,8(a5)
80007958:	0807d263          	bgez	a5,800079dc <exceptionHandler+0xb8>
8000795c:	fec42703          	lw	a4,-20(s0)
80007960:	00b00793          	li	a5,11
80007964:	04f70c63          	beq	a4,a5,800079bc <exceptionHandler+0x98>
80007968:	fec42703          	lw	a4,-20(s0)
8000796c:	00b00793          	li	a5,11
80007970:	04e7ee63          	bltu	a5,a4,800079cc <exceptionHandler+0xa8>
80007974:	fec42703          	lw	a4,-20(s0)
80007978:	00300793          	li	a5,3
8000797c:	00f70a63          	beq	a4,a5,80007990 <exceptionHandler+0x6c>
80007980:	fec42703          	lw	a4,-20(s0)
80007984:	00700793          	li	a5,7
80007988:	02f70063          	beq	a4,a5,800079a8 <exceptionHandler+0x84>
8000798c:	0400006f          	j	800079cc <exceptionHandler+0xa8>
80007990:	fdc42783          	lw	a5,-36(s0)
80007994:	0007a783          	lw	a5,0(a5)
80007998:	00478713          	addi	a4,a5,4
8000799c:	fdc42783          	lw	a5,-36(s0)
800079a0:	00e7a023          	sw	a4,0(a5)
800079a4:	1040006f          	j	80007aa8 <exceptionHandler+0x184>
800079a8:	ffffd717          	auipc	a4,0xffffd
800079ac:	b7470713          	addi	a4,a4,-1164 # 8000451c <clkhandler>
800079b0:	fdc42783          	lw	a5,-36(s0)
800079b4:	00e7a023          	sw	a4,0(a5)
800079b8:	0f00006f          	j	80007aa8 <exceptionHandler+0x184>
800079bc:	00000517          	auipc	a0,0x0
800079c0:	57c50513          	addi	a0,a0,1404 # 80007f38 <_ctype_+0x458>
800079c4:	c80fe0ef          	jal	80005e44 <kprintf>
800079c8:	0e00006f          	j	80007aa8 <exceptionHandler+0x184>
800079cc:	00000517          	auipc	a0,0x0
800079d0:	58450513          	addi	a0,a0,1412 # 80007f50 <_ctype_+0x470>
800079d4:	c70fe0ef          	jal	80005e44 <kprintf>
800079d8:	0d00006f          	j	80007aa8 <exceptionHandler+0x184>
800079dc:	fec42703          	lw	a4,-20(s0)
800079e0:	00b00793          	li	a5,11
800079e4:	0ae7e463          	bltu	a5,a4,80007a8c <exceptionHandler+0x168>
800079e8:	fec42783          	lw	a5,-20(s0)
800079ec:	00279713          	slli	a4,a5,0x2
800079f0:	00000797          	auipc	a5,0x0
800079f4:	5f078793          	addi	a5,a5,1520 # 80007fe0 <_ctype_+0x500>
800079f8:	00f707b3          	add	a5,a4,a5
800079fc:	0007a703          	lw	a4,0(a5)
80007a00:	00000797          	auipc	a5,0x0
80007a04:	5e078793          	addi	a5,a5,1504 # 80007fe0 <_ctype_+0x500>
80007a08:	00f707b3          	add	a5,a4,a5
80007a0c:	00078067          	jr	a5
80007a10:	343027f3          	csrr	a5,mtval
80007a14:	fef42423          	sw	a5,-24(s0)
80007a18:	fe842583          	lw	a1,-24(s0)
80007a1c:	00000517          	auipc	a0,0x0
80007a20:	55050513          	addi	a0,a0,1360 # 80007f6c <_ctype_+0x48c>
80007a24:	c20fe0ef          	jal	80005e44 <kprintf>
80007a28:	fdc42503          	lw	a0,-36(s0)
80007a2c:	e6dff0ef          	jal	80007898 <exception_dump_ctx>
80007a30:	0780006f          	j	80007aa8 <exceptionHandler+0x184>
80007a34:	00000517          	auipc	a0,0x0
80007a38:	55050513          	addi	a0,a0,1360 # 80007f84 <_ctype_+0x4a4>
80007a3c:	c08fe0ef          	jal	80005e44 <kprintf>
80007a40:	fdc42503          	lw	a0,-36(s0)
80007a44:	e55ff0ef          	jal	80007898 <exception_dump_ctx>
80007a48:	0600006f          	j	80007aa8 <exceptionHandler+0x184>
80007a4c:	00000517          	auipc	a0,0x0
80007a50:	55050513          	addi	a0,a0,1360 # 80007f9c <_ctype_+0x4bc>
80007a54:	bf0fe0ef          	jal	80005e44 <kprintf>
80007a58:	fdc42503          	lw	a0,-36(s0)
80007a5c:	e3dff0ef          	jal	80007898 <exception_dump_ctx>
80007a60:	0480006f          	j	80007aa8 <exceptionHandler+0x184>
80007a64:	00000517          	auipc	a0,0x0
80007a68:	54850513          	addi	a0,a0,1352 # 80007fac <_ctype_+0x4cc>
80007a6c:	bd8fe0ef          	jal	80005e44 <kprintf>
80007a70:	fdc42503          	lw	a0,-36(s0)
80007a74:	e25ff0ef          	jal	80007898 <exception_dump_ctx>
80007a78:	0300006f          	j	80007aa8 <exceptionHandler+0x184>
80007a7c:	fdc42503          	lw	a0,-36(s0)
80007a80:	d99ff0ef          	jal	80007818 <do_syscall>
80007a84:	fca42e23          	sw	a0,-36(s0)
80007a88:	0200006f          	j	80007aa8 <exceptionHandler+0x184>
80007a8c:	fec42583          	lw	a1,-20(s0)
80007a90:	00000517          	auipc	a0,0x0
80007a94:	52c50513          	addi	a0,a0,1324 # 80007fbc <_ctype_+0x4dc>
80007a98:	bacfe0ef          	jal	80005e44 <kprintf>
80007a9c:	fdc42503          	lw	a0,-36(s0)
80007aa0:	df9ff0ef          	jal	80007898 <exception_dump_ctx>
80007aa4:	00000013          	nop
80007aa8:	fdc42783          	lw	a5,-36(s0)
80007aac:	00078513          	mv	a0,a5
80007ab0:	02c12083          	lw	ra,44(sp)
80007ab4:	02812403          	lw	s0,40(sp)
80007ab8:	03010113          	addi	sp,sp,48
80007abc:	00008067          	ret

80007ac0 <xdone>:
80007ac0:	ff010113          	addi	sp,sp,-16
80007ac4:	00112623          	sw	ra,12(sp)
80007ac8:	00812423          	sw	s0,8(sp)
80007acc:	01010413          	addi	s0,sp,16
80007ad0:	00000517          	auipc	a0,0x0
80007ad4:	54050513          	addi	a0,a0,1344 # 80008010 <_ctype_+0x530>
80007ad8:	b6cfe0ef          	jal	80005e44 <kprintf>
80007adc:	0000006f          	j	80007adc <xdone+0x1c>

80007ae0 <_ctype_>:
80007ae0:	20202000 20202020 08082020 20080808     .         ..... 
80007af0:	20202020 20202020 20202020 20202020                     
80007b00:	10100820 10101010 10101010 10101010      ...............
80007b10:	04040410 04040404 10040404 10101010     ................
80007b20:	41411010 41414141 01010101 01010101     ..AAAAAA........
80007b30:	01010101 01010101 01010101 10101010     ................
80007b40:	42421010 42424242 02020202 02020202     ..BBBBBB........
80007b50:	02020202 02020202 02020202 10101010     ................
80007b60:	00000020 6c756e28 0000296c ffff8b44      ...(null)..D...
80007b70:	ffff8c0c ffff8c0c ffff8c0c ffff8c0c     ................
80007b80:	ffff8c0c ffff8c0c ffff8c0c ffff8c0c     ................
80007b90:	ffff8c0c ffff8c0c ffff8c0c ffff8c0c     ................
80007ba0:	ffff8c0c ffff8c0c ffff8c0c ffff8af4     ................
80007bb0:	ffff8c0c ffff8c0c ffff8c0c ffff8c0c     ................
80007bc0:	ffff8c0c ffff8c0c ffff8c0c ffff8c0c     ................
80007bd0:	ffff8c0c ffff8be4 ffff89c4 ffff8a24     ............$...
80007be0:	ffff8c0c ffff8c1c ffff8c0c ffff8b94     ................
80007bf0:	ffff8c0c ffff8c0c ffff8c0c ffff8c0c     ................
80007c00:	ffff8c0c ffff8c0c ffff8acc ffff8c0c     ................
80007c10:	ffff8c0c ffff8c0c ffff89f0 ffff8c0c     ................
80007c20:	ffff8a58 ffff8c0c ffff8c0c ffff8b1c     X...............
80007c30:	33323130 37363534 62613938 66656463     0123456789abcdef
80007c40:	00000000 33323130 37363534 42413938     ....0123456789AB
80007c50:	46454443 00000000 6c756e28 0000296c     CDEF....(null)..
80007c60:	ffffa070 ffffa0e8 ffffa0e8 ffffa0e8     p...............
80007c70:	ffffa0e8 ffffa0e8 ffffa0e8 ffffa0e8     ................
80007c80:	ffffa0e8 ffffa0e8 ffffa0c0 ffff9f34     ............4...
80007c90:	ffff9f94 ffffa0e8 ffffa0e8 ffffa0e8     ................
80007ca0:	ffffa0e8 ffffa0e8 ffffa0e8 ffffa0e8     ................
80007cb0:	ffffa0e8 ffffa0e8 ffffa0e8 ffffa048     ............H...
80007cc0:	ffffa0e8 ffffa0e8 ffffa0e8 ffff9f60     ............`...
80007cd0:	ffffa0e8 ffff9fd4 ffffa0e8 ffffa0e8     ................
80007ce0:	ffffa098 ffffa640 ffffa6b8 ffffa6b8     ....@...........
80007cf0:	ffffa6b8 ffffa6b8 ffffa6b8 ffffa6b8     ................
80007d00:	ffffa6b8 ffffa6b8 ffffa6b8 ffffa690     ................
80007d10:	ffffa504 ffffa564 ffffa6b8 ffffa6b8     ....d...........
80007d20:	ffffa6b8 ffffa6b8 ffffa6b8 ffffa6b8     ................
80007d30:	ffffa6b8 ffffa6b8 ffffa6b8 ffffa6b8     ................
80007d40:	ffffa618 ffffa6b8 ffffa6b8 ffffa6b8     ................
80007d50:	ffffa530 ffffa6b8 ffffa5a4 ffffa6b8     0...............
80007d60:	ffffa6b8 ffffa668 33323130 37363534     ....h...01234567
80007d70:	62613938 66656463 00000000 33323130     89abcdef....0123
80007d80:	37363534 42413938 46454443 00000000     456789ABCDEF....
80007d90:	0a0d0920 00000000 33323130 37363534      .......01234567
80007da0:	42413938 46454443 4a494847 4e4d4c4b     89ABCDEFGHIJKLMN
80007db0:	5251504f 56555453 00595857 61657263     OPQRSTUVWXY.crea
80007dc0:	65206574 726f7272 0a732520 00000000     te error %s.....
80007dd0:	ffffcf98 ffffcf24 ffffcf90 ffffcf98     ....$...........
80007de0:	ffffcf30 ffffcf98 ffffcf44 ffffcf30     0.......D...0...
80007df0:	6e696c62 000a206b 6c6c756e 636f7270     blink ..nullproc
80007e00:	0a737365 00000000 333a3631 32353a34     ess.....16:34:52
80007e10:	00000000 20677541 32203420 00343230     ....Aug  4 2024.
80007e20:	6c697542 61642064 203a6574 25207325     Build date: %s %
80007e30:	000a0a73 64303125 74796220 6f207365     s...%10d bytes o
80007e40:	72662066 6d206565 726f6d65 20202e79     f free memory.  
80007e50:	65657246 73696c20 000a3a74 20202020     Free list:..    
80007e60:	20202020 5b202020 30257830 74205838            [0x%08X t
80007e70:	7830206f 58383025 00000a5d 64303125     o 0x%08X]...%10d
80007e80:	74796220 6f207365 69582066 6320756e      bytes of Xinu c
80007e90:	2e65646f 0000000a 64303125 74796220     ode.....%10d byt
80007ea0:	6f207365 61642066 0a2e6174 00000000     es of data......
80007eb0:	20202020 20202020 5b202020 30257830                [0x%0
80007ec0:	74205838 7830206f 58383025 000a0a5d     8X to 0x%08X]...
80007ed0:	6c6c754e 6f727020 73736563 00000000     Null process....
80007ee0:	6e696c62 0000316b 0000000a 700d0a0a     blink1.........p
80007ef0:	63696e61 7325203a 00000a0a 65637845     anic: %s....Exce
80007f00:	6f697470 50203a6e 30253d43 43207838     ption: PC=%08x C
80007f10:	65737561 2078253d 74617453 253d7375     ause=%x Status=%
80007f20:	0a783830 00000000 20474552 64322e25     08x.....REG %.2d
80007f30:	3025203a 000a7838 65747865 6c616e72     : %08x..external
80007f40:	746e6920 75727265 6f697470 000a216e      interruption!..
80007f50:	6e6b6e75 206e776f 6e797361 78652063     unknown async ex
80007f60:	74706563 216e6f69 0000000a 53554143     ception!....CAUS
80007f70:	41465f45 5f544c55 43544546 30252048     E_FAULT_FETCH %0
80007f80:	000a7838 656c6c49 206c6167 74736e69     8x..Illegal inst
80007f90:	74637572 216e6f69 0000000a 6c756146     ruction!....Faul
80007fa0:	6f6c2074 0a216461 00000000 6c756146     t load!.....Faul
80007fb0:	74732074 2165726f 0000000a 636e7953     t store!....Sync
80007fc0:	63786520 69747065 21736e6f 75616320      exceptions! cau
80007fd0:	63206573 3a65646f 0a642520 00000000     se code: %d.....
80007fe0:	fffffaac fffffa30 fffffa54 fffffaac     ....0...T.......
80007ff0:	fffffaac fffffa6c fffffaac fffffa84     ....l...........
80008000:	fffffa9c fffffaac fffffaac fffffa9c     ................
80008010:	6c410a0a 7375206c 70207265 65636f72     ..All user proce
80008020:	73657373 76616820 6f632065 656c706d     sses have comple
80008030:	2e646574                                 ted....
